ARM GAS  /var/folders/_g/2c7lhzm90n5_zxwlm2w6npkr0000gn/T//ccM86DqO.s 			page 1


   1              		.cpu cortex-m4
   2              		.arch armv7e-m
   3              		.fpu fpv4-sp-d16
   4              		.eabi_attribute 27, 1
   5              		.eabi_attribute 28, 1
   6              		.eabi_attribute 20, 1
   7              		.eabi_attribute 21, 1
   8              		.eabi_attribute 23, 3
   9              		.eabi_attribute 24, 1
  10              		.eabi_attribute 25, 1
  11              		.eabi_attribute 26, 1
  12              		.eabi_attribute 30, 1
  13              		.eabi_attribute 34, 1
  14              		.eabi_attribute 18, 4
  15              		.file	"minmea.c"
  16              		.text
  17              	.Ltext0:
  18              		.cfi_sections	.debug_frame
  19              		.file 1 "Core/Src/minmea.c"
  20              		.section	.text.minmea_isfield,"ax",%progbits
  21              		.align	1
  22              		.syntax unified
  23              		.thumb
  24              		.thumb_func
  26              	minmea_isfield:
  27              	.LVL0:
  28              	.LFB4:
  29              		.file 2 "Core/Inc/minmea.h"
   1:Core/Inc/minmea.h **** /*
   2:Core/Inc/minmea.h ****  * Copyright © 2014 Kosma Moczek <kosma@cloudyourcar.com>
   3:Core/Inc/minmea.h ****  * This program is free software. It comes without any warranty, to the extent
   4:Core/Inc/minmea.h ****  * permitted by applicable law. You can redistribute it and/or modify it under
   5:Core/Inc/minmea.h ****  * the terms of the Do What The Fuck You Want To Public License, Version 2, as
   6:Core/Inc/minmea.h ****  * published by Sam Hocevar. See the COPYING file for more details.
   7:Core/Inc/minmea.h ****  */
   8:Core/Inc/minmea.h **** 
   9:Core/Inc/minmea.h **** #ifndef MINMEA_H
  10:Core/Inc/minmea.h **** #define MINMEA_H
  11:Core/Inc/minmea.h **** 
  12:Core/Inc/minmea.h **** #ifdef __cplusplus
  13:Core/Inc/minmea.h **** extern "C" {
  14:Core/Inc/minmea.h **** #endif
  15:Core/Inc/minmea.h **** 
  16:Core/Inc/minmea.h **** #include <ctype.h>
  17:Core/Inc/minmea.h **** #include <stdint.h>
  18:Core/Inc/minmea.h **** #include <stdbool.h>
  19:Core/Inc/minmea.h **** #include <time.h>
  20:Core/Inc/minmea.h **** #include <math.h>
  21:Core/Inc/minmea.h **** #ifdef MINMEA_INCLUDE_COMPAT
  22:Core/Inc/minmea.h **** #include <minmea_compat.h>
  23:Core/Inc/minmea.h **** #endif
  24:Core/Inc/minmea.h **** 
  25:Core/Inc/minmea.h **** #ifndef MINMEA_MAX_SENTENCE_LENGTH
  26:Core/Inc/minmea.h **** #define MINMEA_MAX_SENTENCE_LENGTH 80
  27:Core/Inc/minmea.h **** #endif
  28:Core/Inc/minmea.h **** 
  29:Core/Inc/minmea.h **** enum minmea_sentence_id {
ARM GAS  /var/folders/_g/2c7lhzm90n5_zxwlm2w6npkr0000gn/T//ccM86DqO.s 			page 2


  30:Core/Inc/minmea.h ****     MINMEA_INVALID = -1,
  31:Core/Inc/minmea.h ****     MINMEA_UNKNOWN = 0,
  32:Core/Inc/minmea.h ****     MINMEA_SENTENCE_GBS,
  33:Core/Inc/minmea.h ****     MINMEA_SENTENCE_GGA,
  34:Core/Inc/minmea.h ****     MINMEA_SENTENCE_GLL,
  35:Core/Inc/minmea.h ****     MINMEA_SENTENCE_GSA,
  36:Core/Inc/minmea.h ****     MINMEA_SENTENCE_GST,
  37:Core/Inc/minmea.h ****     MINMEA_SENTENCE_GSV,
  38:Core/Inc/minmea.h ****     MINMEA_SENTENCE_RMC,
  39:Core/Inc/minmea.h ****     MINMEA_SENTENCE_VTG,
  40:Core/Inc/minmea.h ****     MINMEA_SENTENCE_ZDA,
  41:Core/Inc/minmea.h **** };
  42:Core/Inc/minmea.h **** 
  43:Core/Inc/minmea.h **** struct minmea_float {
  44:Core/Inc/minmea.h ****     int_least32_t value;
  45:Core/Inc/minmea.h ****     int_least32_t scale;
  46:Core/Inc/minmea.h **** };
  47:Core/Inc/minmea.h **** 
  48:Core/Inc/minmea.h **** struct minmea_date {
  49:Core/Inc/minmea.h ****     int day;
  50:Core/Inc/minmea.h ****     int month;
  51:Core/Inc/minmea.h ****     int year;
  52:Core/Inc/minmea.h **** };
  53:Core/Inc/minmea.h **** 
  54:Core/Inc/minmea.h **** struct minmea_time {
  55:Core/Inc/minmea.h ****     int hours;
  56:Core/Inc/minmea.h ****     int minutes;
  57:Core/Inc/minmea.h ****     int seconds;
  58:Core/Inc/minmea.h ****     int microseconds;
  59:Core/Inc/minmea.h **** };
  60:Core/Inc/minmea.h **** 
  61:Core/Inc/minmea.h **** struct minmea_sentence_gbs {
  62:Core/Inc/minmea.h ****     struct minmea_time time;
  63:Core/Inc/minmea.h ****     struct minmea_float err_latitude;
  64:Core/Inc/minmea.h ****     struct minmea_float err_longitude;
  65:Core/Inc/minmea.h ****     struct minmea_float err_altitude;
  66:Core/Inc/minmea.h ****     int svid;
  67:Core/Inc/minmea.h ****     struct minmea_float prob;
  68:Core/Inc/minmea.h ****     struct minmea_float bias;
  69:Core/Inc/minmea.h ****     struct minmea_float stddev;
  70:Core/Inc/minmea.h **** };
  71:Core/Inc/minmea.h **** 
  72:Core/Inc/minmea.h **** struct minmea_sentence_rmc {
  73:Core/Inc/minmea.h ****     struct minmea_time time;
  74:Core/Inc/minmea.h ****     bool valid;
  75:Core/Inc/minmea.h ****     struct minmea_float latitude;
  76:Core/Inc/minmea.h ****     struct minmea_float longitude;
  77:Core/Inc/minmea.h ****     struct minmea_float speed;
  78:Core/Inc/minmea.h ****     struct minmea_float course;
  79:Core/Inc/minmea.h ****     struct minmea_date date;
  80:Core/Inc/minmea.h ****     struct minmea_float variation;
  81:Core/Inc/minmea.h **** };
  82:Core/Inc/minmea.h **** 
  83:Core/Inc/minmea.h **** struct minmea_sentence_gga {
  84:Core/Inc/minmea.h ****     struct minmea_time time;
  85:Core/Inc/minmea.h ****     struct minmea_float latitude;
  86:Core/Inc/minmea.h ****     struct minmea_float longitude;
ARM GAS  /var/folders/_g/2c7lhzm90n5_zxwlm2w6npkr0000gn/T//ccM86DqO.s 			page 3


  87:Core/Inc/minmea.h ****     int fix_quality;
  88:Core/Inc/minmea.h ****     int satellites_tracked;
  89:Core/Inc/minmea.h ****     struct minmea_float hdop;
  90:Core/Inc/minmea.h ****     struct minmea_float altitude; char altitude_units;
  91:Core/Inc/minmea.h ****     struct minmea_float height; char height_units;
  92:Core/Inc/minmea.h ****     struct minmea_float dgps_age;
  93:Core/Inc/minmea.h **** };
  94:Core/Inc/minmea.h **** 
  95:Core/Inc/minmea.h **** enum minmea_gll_status {
  96:Core/Inc/minmea.h ****     MINMEA_GLL_STATUS_DATA_VALID = 'A',
  97:Core/Inc/minmea.h ****     MINMEA_GLL_STATUS_DATA_NOT_VALID = 'V',
  98:Core/Inc/minmea.h **** };
  99:Core/Inc/minmea.h **** 
 100:Core/Inc/minmea.h **** // FAA mode added to some fields in NMEA 2.3.
 101:Core/Inc/minmea.h **** enum minmea_faa_mode {
 102:Core/Inc/minmea.h ****     MINMEA_FAA_MODE_AUTONOMOUS = 'A',
 103:Core/Inc/minmea.h ****     MINMEA_FAA_MODE_DIFFERENTIAL = 'D',
 104:Core/Inc/minmea.h ****     MINMEA_FAA_MODE_ESTIMATED = 'E',
 105:Core/Inc/minmea.h ****     MINMEA_FAA_MODE_MANUAL = 'M',
 106:Core/Inc/minmea.h ****     MINMEA_FAA_MODE_SIMULATED = 'S',
 107:Core/Inc/minmea.h ****     MINMEA_FAA_MODE_NOT_VALID = 'N',
 108:Core/Inc/minmea.h ****     MINMEA_FAA_MODE_PRECISE = 'P',
 109:Core/Inc/minmea.h **** };
 110:Core/Inc/minmea.h **** 
 111:Core/Inc/minmea.h **** struct minmea_sentence_gll {
 112:Core/Inc/minmea.h ****     struct minmea_float latitude;
 113:Core/Inc/minmea.h ****     struct minmea_float longitude;
 114:Core/Inc/minmea.h ****     struct minmea_time time;
 115:Core/Inc/minmea.h ****     char status;
 116:Core/Inc/minmea.h ****     char mode;
 117:Core/Inc/minmea.h **** };
 118:Core/Inc/minmea.h **** 
 119:Core/Inc/minmea.h **** struct minmea_sentence_gst {
 120:Core/Inc/minmea.h ****     struct minmea_time time;
 121:Core/Inc/minmea.h ****     struct minmea_float rms_deviation;
 122:Core/Inc/minmea.h ****     struct minmea_float semi_major_deviation;
 123:Core/Inc/minmea.h ****     struct minmea_float semi_minor_deviation;
 124:Core/Inc/minmea.h ****     struct minmea_float semi_major_orientation;
 125:Core/Inc/minmea.h ****     struct minmea_float latitude_error_deviation;
 126:Core/Inc/minmea.h ****     struct minmea_float longitude_error_deviation;
 127:Core/Inc/minmea.h ****     struct minmea_float altitude_error_deviation;
 128:Core/Inc/minmea.h **** };
 129:Core/Inc/minmea.h **** 
 130:Core/Inc/minmea.h **** enum minmea_gsa_mode {
 131:Core/Inc/minmea.h ****     MINMEA_GPGSA_MODE_AUTO = 'A',
 132:Core/Inc/minmea.h ****     MINMEA_GPGSA_MODE_FORCED = 'M',
 133:Core/Inc/minmea.h **** };
 134:Core/Inc/minmea.h **** 
 135:Core/Inc/minmea.h **** enum minmea_gsa_fix_type {
 136:Core/Inc/minmea.h ****     MINMEA_GPGSA_FIX_NONE = 1,
 137:Core/Inc/minmea.h ****     MINMEA_GPGSA_FIX_2D = 2,
 138:Core/Inc/minmea.h ****     MINMEA_GPGSA_FIX_3D = 3,
 139:Core/Inc/minmea.h **** };
 140:Core/Inc/minmea.h **** 
 141:Core/Inc/minmea.h **** struct minmea_sentence_gsa {
 142:Core/Inc/minmea.h ****     char mode;
 143:Core/Inc/minmea.h ****     int fix_type;
ARM GAS  /var/folders/_g/2c7lhzm90n5_zxwlm2w6npkr0000gn/T//ccM86DqO.s 			page 4


 144:Core/Inc/minmea.h ****     int sats[12];
 145:Core/Inc/minmea.h ****     struct minmea_float pdop;
 146:Core/Inc/minmea.h ****     struct minmea_float hdop;
 147:Core/Inc/minmea.h ****     struct minmea_float vdop;
 148:Core/Inc/minmea.h **** };
 149:Core/Inc/minmea.h **** 
 150:Core/Inc/minmea.h **** struct minmea_sat_info {
 151:Core/Inc/minmea.h ****     int nr;
 152:Core/Inc/minmea.h ****     int elevation;
 153:Core/Inc/minmea.h ****     int azimuth;
 154:Core/Inc/minmea.h ****     int snr;
 155:Core/Inc/minmea.h **** };
 156:Core/Inc/minmea.h **** 
 157:Core/Inc/minmea.h **** struct minmea_sentence_gsv {
 158:Core/Inc/minmea.h ****     int total_msgs;
 159:Core/Inc/minmea.h ****     int msg_nr;
 160:Core/Inc/minmea.h ****     int total_sats;
 161:Core/Inc/minmea.h ****     struct minmea_sat_info sats[4];
 162:Core/Inc/minmea.h **** };
 163:Core/Inc/minmea.h **** 
 164:Core/Inc/minmea.h **** struct minmea_sentence_vtg {
 165:Core/Inc/minmea.h ****     struct minmea_float true_track_degrees;
 166:Core/Inc/minmea.h ****     struct minmea_float magnetic_track_degrees;
 167:Core/Inc/minmea.h ****     struct minmea_float speed_knots;
 168:Core/Inc/minmea.h ****     struct minmea_float speed_kph;
 169:Core/Inc/minmea.h ****     enum minmea_faa_mode faa_mode;
 170:Core/Inc/minmea.h **** };
 171:Core/Inc/minmea.h **** 
 172:Core/Inc/minmea.h **** struct minmea_sentence_zda {
 173:Core/Inc/minmea.h ****     struct minmea_time time;
 174:Core/Inc/minmea.h ****     struct minmea_date date;
 175:Core/Inc/minmea.h ****     int hour_offset;
 176:Core/Inc/minmea.h ****     int minute_offset;
 177:Core/Inc/minmea.h **** };
 178:Core/Inc/minmea.h **** 
 179:Core/Inc/minmea.h **** /**
 180:Core/Inc/minmea.h ****  * Calculate raw sentence checksum. Does not check sentence integrity.
 181:Core/Inc/minmea.h ****  */
 182:Core/Inc/minmea.h **** uint8_t minmea_checksum(const char *sentence);
 183:Core/Inc/minmea.h **** 
 184:Core/Inc/minmea.h **** /**
 185:Core/Inc/minmea.h ****  * Check sentence validity and checksum. Returns true for valid sentences.
 186:Core/Inc/minmea.h ****  */
 187:Core/Inc/minmea.h **** bool minmea_check(const char *sentence, bool strict);
 188:Core/Inc/minmea.h **** 
 189:Core/Inc/minmea.h **** /**
 190:Core/Inc/minmea.h ****  * Determine talker identifier.
 191:Core/Inc/minmea.h ****  */
 192:Core/Inc/minmea.h **** bool minmea_talker_id(char talker[3], const char *sentence);
 193:Core/Inc/minmea.h **** 
 194:Core/Inc/minmea.h **** /**
 195:Core/Inc/minmea.h ****  * Determine sentence identifier.
 196:Core/Inc/minmea.h ****  */
 197:Core/Inc/minmea.h **** enum minmea_sentence_id minmea_sentence_id(const char *sentence, bool strict);
 198:Core/Inc/minmea.h **** 
 199:Core/Inc/minmea.h **** /**
 200:Core/Inc/minmea.h ****  * Scanf-like processor for NMEA sentences. Supports the following formats:
ARM GAS  /var/folders/_g/2c7lhzm90n5_zxwlm2w6npkr0000gn/T//ccM86DqO.s 			page 5


 201:Core/Inc/minmea.h ****  * c - single character (char *)
 202:Core/Inc/minmea.h ****  * d - direction, returned as 1/-1, default 0 (int *)
 203:Core/Inc/minmea.h ****  * f - fractional, returned as value + scale (struct minmea_float *)
 204:Core/Inc/minmea.h ****  * i - decimal, default zero (int *)
 205:Core/Inc/minmea.h ****  * s - string (char *)
 206:Core/Inc/minmea.h ****  * t - talker identifier and type (char *)
 207:Core/Inc/minmea.h ****  * D - date (struct minmea_date *)
 208:Core/Inc/minmea.h ****  * T - time stamp (struct minmea_time *)
 209:Core/Inc/minmea.h ****  * _ - ignore this field
 210:Core/Inc/minmea.h ****  * ; - following fields are optional
 211:Core/Inc/minmea.h ****  * Returns true on success. See library source code for details.
 212:Core/Inc/minmea.h ****  */
 213:Core/Inc/minmea.h **** bool minmea_scan(const char *sentence, const char *format, ...);
 214:Core/Inc/minmea.h **** 
 215:Core/Inc/minmea.h **** /*
 216:Core/Inc/minmea.h ****  * Parse a specific type of sentence. Return true on success.
 217:Core/Inc/minmea.h ****  */
 218:Core/Inc/minmea.h **** bool minmea_parse_gbs(struct minmea_sentence_gbs *frame, const char *sentence);
 219:Core/Inc/minmea.h **** bool minmea_parse_rmc(struct minmea_sentence_rmc *frame, const char *sentence);
 220:Core/Inc/minmea.h **** bool minmea_parse_gga(struct minmea_sentence_gga *frame, const char *sentence);
 221:Core/Inc/minmea.h **** bool minmea_parse_gsa(struct minmea_sentence_gsa *frame, const char *sentence);
 222:Core/Inc/minmea.h **** bool minmea_parse_gll(struct minmea_sentence_gll *frame, const char *sentence);
 223:Core/Inc/minmea.h **** bool minmea_parse_gst(struct minmea_sentence_gst *frame, const char *sentence);
 224:Core/Inc/minmea.h **** bool minmea_parse_gsv(struct minmea_sentence_gsv *frame, const char *sentence);
 225:Core/Inc/minmea.h **** bool minmea_parse_vtg(struct minmea_sentence_vtg *frame, const char *sentence);
 226:Core/Inc/minmea.h **** bool minmea_parse_zda(struct minmea_sentence_zda *frame, const char *sentence);
 227:Core/Inc/minmea.h **** 
 228:Core/Inc/minmea.h **** /**
 229:Core/Inc/minmea.h ****  * Convert GPS UTC date/time representation to a UNIX calendar time.
 230:Core/Inc/minmea.h ****  */
 231:Core/Inc/minmea.h **** int minmea_getdatetime(struct tm *tm, const struct minmea_date *date, const struct minmea_time *tim
 232:Core/Inc/minmea.h **** 
 233:Core/Inc/minmea.h **** /**
 234:Core/Inc/minmea.h ****  * Convert GPS UTC date/time representation to a UNIX timestamp.
 235:Core/Inc/minmea.h ****  */
 236:Core/Inc/minmea.h **** int minmea_gettime(struct timespec *ts, const struct minmea_date *date, const struct minmea_time *t
 237:Core/Inc/minmea.h **** 
 238:Core/Inc/minmea.h **** /**
 239:Core/Inc/minmea.h ****  * Rescale a fixed-point value to a different scale. Rounds towards zero.
 240:Core/Inc/minmea.h ****  */
 241:Core/Inc/minmea.h **** static inline int_least32_t minmea_rescale(const struct minmea_float *f, int_least32_t new_scale)
 242:Core/Inc/minmea.h **** {
 243:Core/Inc/minmea.h ****     if (f->scale == 0)
 244:Core/Inc/minmea.h ****         return 0;
 245:Core/Inc/minmea.h ****     if (f->scale == new_scale)
 246:Core/Inc/minmea.h ****         return f->value;
 247:Core/Inc/minmea.h ****     if (f->scale > new_scale)
 248:Core/Inc/minmea.h ****         return (f->value + ((f->value > 0) - (f->value < 0)) * f->scale/new_scale/2) / (f->scale/ne
 249:Core/Inc/minmea.h ****     else
 250:Core/Inc/minmea.h ****         return f->value * (new_scale/f->scale);
 251:Core/Inc/minmea.h **** }
 252:Core/Inc/minmea.h **** 
 253:Core/Inc/minmea.h **** /**
 254:Core/Inc/minmea.h ****  * Convert a fixed-point value to a floating-point value.
 255:Core/Inc/minmea.h ****  * Returns NaN for "unknown" values.
 256:Core/Inc/minmea.h ****  */
 257:Core/Inc/minmea.h **** static inline float minmea_tofloat(const struct minmea_float *f)
ARM GAS  /var/folders/_g/2c7lhzm90n5_zxwlm2w6npkr0000gn/T//ccM86DqO.s 			page 6


 258:Core/Inc/minmea.h **** {
 259:Core/Inc/minmea.h ****     if (f->scale == 0)
 260:Core/Inc/minmea.h ****         return NAN;
 261:Core/Inc/minmea.h ****     return (float) f->value / (float) f->scale;
 262:Core/Inc/minmea.h **** }
 263:Core/Inc/minmea.h **** 
 264:Core/Inc/minmea.h **** /**
 265:Core/Inc/minmea.h ****  * Convert a raw coordinate to a floating point DD.DDD... value.
 266:Core/Inc/minmea.h ****  * Returns NaN for "unknown" values.
 267:Core/Inc/minmea.h ****  */
 268:Core/Inc/minmea.h **** static inline float minmea_tocoord(const struct minmea_float *f)
 269:Core/Inc/minmea.h **** {
 270:Core/Inc/minmea.h ****     if (f->scale == 0)
 271:Core/Inc/minmea.h ****         return NAN;
 272:Core/Inc/minmea.h ****     if (f->scale  > (INT_LEAST32_MAX / 100))
 273:Core/Inc/minmea.h ****         return NAN;
 274:Core/Inc/minmea.h ****     if (f->scale < (INT_LEAST32_MIN / 100))
 275:Core/Inc/minmea.h ****         return NAN;
 276:Core/Inc/minmea.h ****     int_least32_t degrees = f->value / (f->scale * 100);
 277:Core/Inc/minmea.h ****     int_least32_t minutes = f->value % (f->scale * 100);
 278:Core/Inc/minmea.h ****     return (float) degrees + (float) minutes / (60 * f->scale);
 279:Core/Inc/minmea.h **** }
 280:Core/Inc/minmea.h **** 
 281:Core/Inc/minmea.h **** /**
 282:Core/Inc/minmea.h ****  * Check whether a character belongs to the set of characters allowed in a
 283:Core/Inc/minmea.h ****  * sentence data field.
 284:Core/Inc/minmea.h ****  */
 285:Core/Inc/minmea.h **** static inline bool minmea_isfield(char c) {
  30              		.loc 2 285 43 view -0
  31              		.cfi_startproc
  32              		@ args = 0, pretend = 0, frame = 0
  33              		@ frame_needed = 0, uses_anonymous_args = 0
  34              		@ link register save eliminated.
 286:Core/Inc/minmea.h ****     return isprint((unsigned char) c) && c != ',' && c != '*';
  35              		.loc 2 286 5 view .LVU1
  36              		.loc 2 286 12 is_stmt 0 view .LVU2
  37 0000 084B     		ldr	r3, .L7
  38 0002 1B5C     		ldrb	r3, [r3, r0]	@ zero_extendqisi2
  39              		.loc 2 286 51 view .LVU3
  40 0004 13F0970F 		tst	r3, #151
  41 0008 07D0     		beq	.L3
  42              		.loc 2 286 39 discriminator 1 view .LVU4
  43 000a 2C28     		cmp	r0, #44
  44 000c 07D0     		beq	.L4
  45              		.loc 2 286 51 discriminator 3 view .LVU5
  46 000e 2A28     		cmp	r0, #42
  47 0010 01D0     		beq	.L6
  48              		.loc 2 286 51 view .LVU6
  49 0012 0120     		movs	r0, #1
  50              	.LVL1:
 287:Core/Inc/minmea.h **** }
  51              		.loc 2 287 1 view .LVU7
  52 0014 7047     		bx	lr
  53              	.LVL2:
  54              	.L6:
 286:Core/Inc/minmea.h ****     return isprint((unsigned char) c) && c != ',' && c != '*';
  55              		.loc 2 286 51 view .LVU8
ARM GAS  /var/folders/_g/2c7lhzm90n5_zxwlm2w6npkr0000gn/T//ccM86DqO.s 			page 7


  56 0016 0020     		movs	r0, #0
  57              	.LVL3:
 286:Core/Inc/minmea.h ****     return isprint((unsigned char) c) && c != ',' && c != '*';
  58              		.loc 2 286 51 view .LVU9
  59 0018 7047     		bx	lr
  60              	.LVL4:
  61              	.L3:
 286:Core/Inc/minmea.h ****     return isprint((unsigned char) c) && c != ',' && c != '*';
  62              		.loc 2 286 51 view .LVU10
  63 001a 0020     		movs	r0, #0
  64              	.LVL5:
 286:Core/Inc/minmea.h ****     return isprint((unsigned char) c) && c != ',' && c != '*';
  65              		.loc 2 286 51 view .LVU11
  66 001c 7047     		bx	lr
  67              	.LVL6:
  68              	.L4:
 286:Core/Inc/minmea.h ****     return isprint((unsigned char) c) && c != ',' && c != '*';
  69              		.loc 2 286 51 view .LVU12
  70 001e 0020     		movs	r0, #0
  71              	.LVL7:
 286:Core/Inc/minmea.h ****     return isprint((unsigned char) c) && c != ',' && c != '*';
  72              		.loc 2 286 51 view .LVU13
  73 0020 7047     		bx	lr
  74              	.L8:
  75 0022 00BF     		.align	2
  76              	.L7:
  77 0024 01000000 		.word	_ctype_+1
  78              		.cfi_endproc
  79              	.LFE4:
  81              		.section	.text.hex2int,"ax",%progbits
  82              		.align	1
  83              		.syntax unified
  84              		.thumb
  85              		.thumb_func
  87              	hex2int:
  88              	.LVL8:
  89              	.LFB5:
   1:Core/Src/minmea.c **** /*
   2:Core/Src/minmea.c ****  * Copyright © 2014 Kosma Moczek <kosma@cloudyourcar.com>
   3:Core/Src/minmea.c ****  * This program is free software. It comes without any warranty, to the extent
   4:Core/Src/minmea.c ****  * permitted by applicable law. You can redistribute it and/or modify it under
   5:Core/Src/minmea.c ****  * the terms of the Do What The Fuck You Want To Public License, Version 2, as
   6:Core/Src/minmea.c ****  * published by Sam Hocevar. See the COPYING file for more details.
   7:Core/Src/minmea.c ****  */
   8:Core/Src/minmea.c **** 
   9:Core/Src/minmea.c **** #include "minmea.h"
  10:Core/Src/minmea.c **** 
  11:Core/Src/minmea.c **** #include <stdlib.h>
  12:Core/Src/minmea.c **** #include <string.h>
  13:Core/Src/minmea.c **** #include <stdarg.h>
  14:Core/Src/minmea.c **** 
  15:Core/Src/minmea.c **** #define boolstr(s) ((s) ? "true" : "false")
  16:Core/Src/minmea.c **** 
  17:Core/Src/minmea.c **** static int hex2int(char c)
  18:Core/Src/minmea.c **** {
  90              		.loc 1 18 1 is_stmt 1 view -0
  91              		.cfi_startproc
ARM GAS  /var/folders/_g/2c7lhzm90n5_zxwlm2w6npkr0000gn/T//ccM86DqO.s 			page 8


  92              		@ args = 0, pretend = 0, frame = 0
  93              		@ frame_needed = 0, uses_anonymous_args = 0
  94              		@ link register save eliminated.
  19:Core/Src/minmea.c ****     if (c >= '0' && c <= '9')
  95              		.loc 1 19 5 view .LVU15
  96              		.loc 1 19 18 is_stmt 0 view .LVU16
  97 0000 A0F13003 		sub	r3, r0, #48
  98 0004 DBB2     		uxtb	r3, r3
  99              		.loc 1 19 8 view .LVU17
 100 0006 092B     		cmp	r3, #9
 101 0008 0BD9     		bls	.L14
  20:Core/Src/minmea.c ****         return c - '0';
  21:Core/Src/minmea.c ****     if (c >= 'A' && c <= 'F')
 102              		.loc 1 21 5 is_stmt 1 view .LVU18
 103              		.loc 1 21 18 is_stmt 0 view .LVU19
 104 000a A0F14103 		sub	r3, r0, #65
 105 000e DBB2     		uxtb	r3, r3
 106              		.loc 1 21 8 view .LVU20
 107 0010 052B     		cmp	r3, #5
 108 0012 08D9     		bls	.L15
  22:Core/Src/minmea.c ****         return c - 'A' + 10;
  23:Core/Src/minmea.c ****     if (c >= 'a' && c <= 'f')
 109              		.loc 1 23 5 is_stmt 1 view .LVU21
 110              		.loc 1 23 18 is_stmt 0 view .LVU22
 111 0014 A0F16103 		sub	r3, r0, #97
 112 0018 DBB2     		uxtb	r3, r3
 113              		.loc 1 23 8 view .LVU23
 114 001a 052B     		cmp	r3, #5
 115 001c 05D8     		bhi	.L13
  24:Core/Src/minmea.c ****         return c - 'a' + 10;
 116              		.loc 1 24 9 is_stmt 1 view .LVU24
 117              		.loc 1 24 24 is_stmt 0 view .LVU25
 118 001e 5738     		subs	r0, r0, #87
 119              	.LVL9:
 120              		.loc 1 24 24 view .LVU26
 121 0020 7047     		bx	lr
 122              	.LVL10:
 123              	.L14:
  20:Core/Src/minmea.c ****         return c - '0';
 124              		.loc 1 20 9 is_stmt 1 view .LVU27
  20:Core/Src/minmea.c ****         return c - '0';
 125              		.loc 1 20 18 is_stmt 0 view .LVU28
 126 0022 3038     		subs	r0, r0, #48
 127              	.LVL11:
  20:Core/Src/minmea.c ****         return c - '0';
 128              		.loc 1 20 18 view .LVU29
 129 0024 7047     		bx	lr
 130              	.LVL12:
 131              	.L15:
  22:Core/Src/minmea.c ****         return c - 'A' + 10;
 132              		.loc 1 22 9 is_stmt 1 view .LVU30
  22:Core/Src/minmea.c ****         return c - 'A' + 10;
 133              		.loc 1 22 24 is_stmt 0 view .LVU31
 134 0026 3738     		subs	r0, r0, #55
 135              	.LVL13:
  22:Core/Src/minmea.c ****         return c - 'A' + 10;
 136              		.loc 1 22 24 view .LVU32
ARM GAS  /var/folders/_g/2c7lhzm90n5_zxwlm2w6npkr0000gn/T//ccM86DqO.s 			page 9


 137 0028 7047     		bx	lr
 138              	.LVL14:
 139              	.L13:
  25:Core/Src/minmea.c ****     return -1;
 140              		.loc 1 25 12 view .LVU33
 141 002a 4FF0FF30 		mov	r0, #-1
 142              	.LVL15:
  26:Core/Src/minmea.c **** }
 143              		.loc 1 26 1 view .LVU34
 144 002e 7047     		bx	lr
 145              		.cfi_endproc
 146              	.LFE5:
 148              		.section	.text.minmea_checksum,"ax",%progbits
 149              		.align	1
 150              		.global	minmea_checksum
 151              		.syntax unified
 152              		.thumb
 153              		.thumb_func
 155              	minmea_checksum:
 156              	.LVL16:
 157              	.LFB6:
  27:Core/Src/minmea.c **** 
  28:Core/Src/minmea.c **** uint8_t minmea_checksum(const char *sentence)
  29:Core/Src/minmea.c **** {
 158              		.loc 1 29 1 is_stmt 1 view -0
 159              		.cfi_startproc
 160              		@ args = 0, pretend = 0, frame = 0
 161              		@ frame_needed = 0, uses_anonymous_args = 0
 162              		@ link register save eliminated.
 163              		.loc 1 29 1 is_stmt 0 view .LVU36
 164 0000 0246     		mov	r2, r0
  30:Core/Src/minmea.c ****     // Support senteces with or without the starting dollar sign.
  31:Core/Src/minmea.c ****     if (*sentence == '$')
 165              		.loc 1 31 5 is_stmt 1 view .LVU37
 166              		.loc 1 31 9 is_stmt 0 view .LVU38
 167 0002 0378     		ldrb	r3, [r0]	@ zero_extendqisi2
 168              		.loc 1 31 8 view .LVU39
 169 0004 242B     		cmp	r3, #36
 170 0006 01D0     		beq	.L21
 171              	.LVL17:
 172              	.L17:
  29:Core/Src/minmea.c ****     // Support senteces with or without the starting dollar sign.
 173              		.loc 1 29 1 view .LVU40
 174 0008 0020     		movs	r0, #0
 175 000a 03E0     		b	.L18
 176              	.LVL18:
 177              	.L21:
  32:Core/Src/minmea.c ****         sentence++;
 178              		.loc 1 32 9 is_stmt 1 view .LVU41
 179              		.loc 1 32 17 is_stmt 0 view .LVU42
 180 000c 0132     		adds	r2, r2, #1
 181              	.LVL19:
 182              		.loc 1 32 17 view .LVU43
 183 000e FBE7     		b	.L17
 184              	.LVL20:
 185              	.L20:
  33:Core/Src/minmea.c **** 
ARM GAS  /var/folders/_g/2c7lhzm90n5_zxwlm2w6npkr0000gn/T//ccM86DqO.s 			page 10


  34:Core/Src/minmea.c ****     uint8_t checksum = 0x00;
  35:Core/Src/minmea.c **** 
  36:Core/Src/minmea.c ****     // The optional checksum is an XOR of all bytes between "$" and "*".
  37:Core/Src/minmea.c ****     while (*sentence && *sentence != '*')
  38:Core/Src/minmea.c ****         checksum ^= *sentence++;
 186              		.loc 1 38 9 is_stmt 1 view .LVU44
 187              		.loc 1 38 30 is_stmt 0 view .LVU45
 188 0010 0132     		adds	r2, r2, #1
 189              	.LVL21:
 190              		.loc 1 38 18 view .LVU46
 191 0012 5840     		eors	r0, r0, r3
 192              	.LVL22:
 193              	.L18:
  37:Core/Src/minmea.c ****         checksum ^= *sentence++;
 194              		.loc 1 37 22 is_stmt 1 view .LVU47
  37:Core/Src/minmea.c ****         checksum ^= *sentence++;
 195              		.loc 1 37 12 is_stmt 0 view .LVU48
 196 0014 1378     		ldrb	r3, [r2]	@ zero_extendqisi2
  37:Core/Src/minmea.c ****         checksum ^= *sentence++;
 197              		.loc 1 37 22 view .LVU49
 198 0016 0BB1     		cbz	r3, .L19
  37:Core/Src/minmea.c ****         checksum ^= *sentence++;
 199              		.loc 1 37 22 discriminator 1 view .LVU50
 200 0018 2A2B     		cmp	r3, #42
 201 001a F9D1     		bne	.L20
 202              	.L19:
  39:Core/Src/minmea.c **** 
  40:Core/Src/minmea.c ****     return checksum;
 203              		.loc 1 40 5 is_stmt 1 view .LVU51
  41:Core/Src/minmea.c **** }
 204              		.loc 1 41 1 is_stmt 0 view .LVU52
 205 001c 7047     		bx	lr
 206              		.cfi_endproc
 207              	.LFE6:
 209              		.section	.text.minmea_check,"ax",%progbits
 210              		.align	1
 211              		.global	minmea_check
 212              		.syntax unified
 213              		.thumb
 214              		.thumb_func
 216              	minmea_check:
 217              	.LVL23:
 218              	.LFB7:
  42:Core/Src/minmea.c **** 
  43:Core/Src/minmea.c **** bool minmea_check(const char *sentence, bool strict)
  44:Core/Src/minmea.c **** {
 219              		.loc 1 44 1 is_stmt 1 view -0
 220              		.cfi_startproc
 221              		@ args = 0, pretend = 0, frame = 0
 222              		@ frame_needed = 0, uses_anonymous_args = 0
 223              		.loc 1 44 1 is_stmt 0 view .LVU54
 224 0000 F8B5     		push	{r3, r4, r5, r6, r7, lr}
 225              		.cfi_def_cfa_offset 24
 226              		.cfi_offset 3, -24
 227              		.cfi_offset 4, -20
 228              		.cfi_offset 5, -16
 229              		.cfi_offset 6, -12
ARM GAS  /var/folders/_g/2c7lhzm90n5_zxwlm2w6npkr0000gn/T//ccM86DqO.s 			page 11


 230              		.cfi_offset 7, -8
 231              		.cfi_offset 14, -4
  45:Core/Src/minmea.c ****     uint8_t checksum = 0x00;
 232              		.loc 1 45 5 is_stmt 1 view .LVU55
 233              	.LVL24:
  46:Core/Src/minmea.c **** 
  47:Core/Src/minmea.c ****     // A valid sentence starts with "$".
  48:Core/Src/minmea.c ****     if (*sentence++ != '$')
 234              		.loc 1 48 5 view .LVU56
 235              		.loc 1 48 18 is_stmt 0 view .LVU57
 236 0002 0446     		mov	r4, r0
 237              	.LVL25:
 238              		.loc 1 48 9 view .LVU58
 239 0004 14F8013B 		ldrb	r3, [r4], #1	@ zero_extendqisi2
 240              	.LVL26:
 241              		.loc 1 48 8 view .LVU59
 242 0008 242B     		cmp	r3, #36
 243 000a 2ED1     		bne	.L31
  45:Core/Src/minmea.c ****     uint8_t checksum = 0x00;
 244              		.loc 1 45 13 view .LVU60
 245 000c 0025     		movs	r5, #0
 246 000e 01E0     		b	.L24
 247              	.LVL27:
 248              	.L26:
  49:Core/Src/minmea.c ****         return false;
  50:Core/Src/minmea.c **** 
  51:Core/Src/minmea.c ****     // The optional checksum is an XOR of all bytes between "$" and "*".
  52:Core/Src/minmea.c ****     while (*sentence && *sentence != '*' && isprint((unsigned char) *sentence))
  53:Core/Src/minmea.c ****         checksum ^= *sentence++;
 249              		.loc 1 53 9 is_stmt 1 view .LVU61
 250              		.loc 1 53 30 is_stmt 0 view .LVU62
 251 0010 0134     		adds	r4, r4, #1
 252              	.LVL28:
 253              		.loc 1 53 18 view .LVU63
 254 0012 5D40     		eors	r5, r5, r3
 255              	.LVL29:
 256              	.L24:
  52:Core/Src/minmea.c ****         checksum ^= *sentence++;
 257              		.loc 1 52 42 is_stmt 1 view .LVU64
  52:Core/Src/minmea.c ****         checksum ^= *sentence++;
 258              		.loc 1 52 12 is_stmt 0 view .LVU65
 259 0014 2378     		ldrb	r3, [r4]	@ zero_extendqisi2
  52:Core/Src/minmea.c ****         checksum ^= *sentence++;
 260              		.loc 1 52 42 view .LVU66
 261 0016 33B1     		cbz	r3, .L25
  52:Core/Src/minmea.c ****         checksum ^= *sentence++;
 262              		.loc 1 52 22 discriminator 1 view .LVU67
 263 0018 2A2B     		cmp	r3, #42
 264 001a 04D0     		beq	.L25
  52:Core/Src/minmea.c ****         checksum ^= *sentence++;
 265              		.loc 1 52 45 discriminator 2 view .LVU68
 266 001c 184A     		ldr	r2, .L39
 267 001e D25C     		ldrb	r2, [r2, r3]	@ zero_extendqisi2
  52:Core/Src/minmea.c ****         checksum ^= *sentence++;
 268              		.loc 1 52 42 discriminator 2 view .LVU69
 269 0020 12F0970F 		tst	r2, #151
 270 0024 F4D1     		bne	.L26
ARM GAS  /var/folders/_g/2c7lhzm90n5_zxwlm2w6npkr0000gn/T//ccM86DqO.s 			page 12


 271              	.L25:
  54:Core/Src/minmea.c **** 
  55:Core/Src/minmea.c ****     // If checksum is present...
  56:Core/Src/minmea.c ****     if (*sentence == '*') {
 272              		.loc 1 56 5 is_stmt 1 view .LVU70
 273              		.loc 1 56 8 is_stmt 0 view .LVU71
 274 0026 2A2B     		cmp	r3, #42
 275 0028 02D0     		beq	.L38
  57:Core/Src/minmea.c ****         // Extract checksum.
  58:Core/Src/minmea.c ****         sentence++;
  59:Core/Src/minmea.c ****         int upper = hex2int(*sentence++);
  60:Core/Src/minmea.c ****         if (upper == -1)
  61:Core/Src/minmea.c ****             return false;
  62:Core/Src/minmea.c ****         int lower = hex2int(*sentence++);
  63:Core/Src/minmea.c ****         if (lower == -1)
  64:Core/Src/minmea.c ****             return false;
  65:Core/Src/minmea.c ****         int expected = upper << 4 | lower;
  66:Core/Src/minmea.c **** 
  67:Core/Src/minmea.c ****         // Check for checksum mismatch.
  68:Core/Src/minmea.c ****         if (checksum != expected)
  69:Core/Src/minmea.c ****             return false;
  70:Core/Src/minmea.c ****     } else if (strict) {
 276              		.loc 1 70 12 is_stmt 1 view .LVU72
 277              		.loc 1 70 15 is_stmt 0 view .LVU73
 278 002a B1B1     		cbz	r1, .L29
  71:Core/Src/minmea.c ****         // Discard non-checksummed frames in strict mode.
  72:Core/Src/minmea.c ****         return false;
 279              		.loc 1 72 16 view .LVU74
 280 002c 0020     		movs	r0, #0
 281 002e 1DE0     		b	.L23
 282              	.L38:
 283              	.LBB2:
  58:Core/Src/minmea.c ****         int upper = hex2int(*sentence++);
 284              		.loc 1 58 9 is_stmt 1 view .LVU75
 285              	.LVL30:
  59:Core/Src/minmea.c ****         if (upper == -1)
 286              		.loc 1 59 9 view .LVU76
  59:Core/Src/minmea.c ****         if (upper == -1)
 287              		.loc 1 59 21 is_stmt 0 view .LVU77
 288 0030 6078     		ldrb	r0, [r4, #1]	@ zero_extendqisi2
 289 0032 FFF7FEFF 		bl	hex2int
 290              	.LVL31:
  59:Core/Src/minmea.c ****         if (upper == -1)
 291              		.loc 1 59 21 view .LVU78
 292 0036 0646     		mov	r6, r0
 293              	.LVL32:
  60:Core/Src/minmea.c ****             return false;
 294              		.loc 1 60 9 is_stmt 1 view .LVU79
  60:Core/Src/minmea.c ****             return false;
 295              		.loc 1 60 12 is_stmt 0 view .LVU80
 296 0038 B0F1FF3F 		cmp	r0, #-1
 297 003c 17D0     		beq	.L32
  62:Core/Src/minmea.c ****         if (lower == -1)
 298              		.loc 1 62 9 is_stmt 1 view .LVU81
  62:Core/Src/minmea.c ****         if (lower == -1)
 299              		.loc 1 62 38 is_stmt 0 view .LVU82
 300 003e E71C     		adds	r7, r4, #3
ARM GAS  /var/folders/_g/2c7lhzm90n5_zxwlm2w6npkr0000gn/T//ccM86DqO.s 			page 13


 301              	.LVL33:
  62:Core/Src/minmea.c ****         if (lower == -1)
 302              		.loc 1 62 21 view .LVU83
 303 0040 A078     		ldrb	r0, [r4, #2]	@ zero_extendqisi2
 304              	.LVL34:
  62:Core/Src/minmea.c ****         if (lower == -1)
 305              		.loc 1 62 21 view .LVU84
 306 0042 FFF7FEFF 		bl	hex2int
 307              	.LVL35:
  63:Core/Src/minmea.c ****             return false;
 308              		.loc 1 63 9 is_stmt 1 view .LVU85
  63:Core/Src/minmea.c ****             return false;
 309              		.loc 1 63 12 is_stmt 0 view .LVU86
 310 0046 B0F1FF3F 		cmp	r0, #-1
 311 004a 12D0     		beq	.L33
  65:Core/Src/minmea.c **** 
 312              		.loc 1 65 9 is_stmt 1 view .LVU87
  65:Core/Src/minmea.c **** 
 313              		.loc 1 65 13 is_stmt 0 view .LVU88
 314 004c 40EA0610 		orr	r0, r0, r6, lsl #4
 315              	.LVL36:
  68:Core/Src/minmea.c ****             return false;
 316              		.loc 1 68 9 is_stmt 1 view .LVU89
  68:Core/Src/minmea.c ****             return false;
 317              		.loc 1 68 12 is_stmt 0 view .LVU90
 318 0050 8542     		cmp	r5, r0
 319 0052 10D1     		bne	.L34
  62:Core/Src/minmea.c ****         if (lower == -1)
 320              		.loc 1 62 38 view .LVU91
 321 0054 3C46     		mov	r4, r7
 322 0056 00E0     		b	.L29
 323              	.LVL37:
 324              	.L30:
  62:Core/Src/minmea.c ****         if (lower == -1)
 325              		.loc 1 62 38 view .LVU92
 326              	.LBE2:
  73:Core/Src/minmea.c ****     }
  74:Core/Src/minmea.c **** 
  75:Core/Src/minmea.c ****     // The only stuff allowed at this point is a newline.
  76:Core/Src/minmea.c ****     while (*sentence == '\r' || *sentence == '\n') {
  77:Core/Src/minmea.c ****         sentence++;
 327              		.loc 1 77 9 is_stmt 1 view .LVU93
 328              		.loc 1 77 17 is_stmt 0 view .LVU94
 329 0058 0134     		adds	r4, r4, #1
 330              	.LVL38:
 331              	.L29:
  76:Core/Src/minmea.c ****         sentence++;
 332              		.loc 1 76 30 is_stmt 1 view .LVU95
  76:Core/Src/minmea.c ****         sentence++;
 333              		.loc 1 76 12 is_stmt 0 view .LVU96
 334 005a 2378     		ldrb	r3, [r4]	@ zero_extendqisi2
  76:Core/Src/minmea.c ****         sentence++;
 335              		.loc 1 76 30 view .LVU97
 336 005c 0D2B     		cmp	r3, #13
 337 005e FBD0     		beq	.L30
  76:Core/Src/minmea.c ****         sentence++;
 338              		.loc 1 76 30 discriminator 1 view .LVU98
ARM GAS  /var/folders/_g/2c7lhzm90n5_zxwlm2w6npkr0000gn/T//ccM86DqO.s 			page 14


 339 0060 0A2B     		cmp	r3, #10
 340 0062 F9D0     		beq	.L30
  78:Core/Src/minmea.c ****     }
  79:Core/Src/minmea.c ****     
  80:Core/Src/minmea.c ****     if (*sentence) {
 341              		.loc 1 80 5 is_stmt 1 view .LVU99
 342              		.loc 1 80 8 is_stmt 0 view .LVU100
 343 0064 4BB9     		cbnz	r3, .L36
  81:Core/Src/minmea.c ****         return false;
  82:Core/Src/minmea.c ****     }
  83:Core/Src/minmea.c **** 
  84:Core/Src/minmea.c ****     return true;
 344              		.loc 1 84 12 view .LVU101
 345 0066 0120     		movs	r0, #1
 346 0068 00E0     		b	.L23
 347              	.LVL39:
 348              	.L31:
  49:Core/Src/minmea.c **** 
 349              		.loc 1 49 16 view .LVU102
 350 006a 0020     		movs	r0, #0
 351              	.LVL40:
 352              	.L23:
  85:Core/Src/minmea.c **** }
 353              		.loc 1 85 1 view .LVU103
 354 006c F8BD     		pop	{r3, r4, r5, r6, r7, pc}
 355              	.LVL41:
 356              	.L32:
 357              	.LBB3:
  61:Core/Src/minmea.c ****         int lower = hex2int(*sentence++);
 358              		.loc 1 61 20 view .LVU104
 359 006e 0020     		movs	r0, #0
 360              	.LVL42:
  61:Core/Src/minmea.c ****         int lower = hex2int(*sentence++);
 361              		.loc 1 61 20 view .LVU105
 362 0070 FCE7     		b	.L23
 363              	.LVL43:
 364              	.L33:
  64:Core/Src/minmea.c ****         int expected = upper << 4 | lower;
 365              		.loc 1 64 20 view .LVU106
 366 0072 0020     		movs	r0, #0
 367              	.LVL44:
  64:Core/Src/minmea.c ****         int expected = upper << 4 | lower;
 368              		.loc 1 64 20 view .LVU107
 369 0074 FAE7     		b	.L23
 370              	.LVL45:
 371              	.L34:
  69:Core/Src/minmea.c ****     } else if (strict) {
 372              		.loc 1 69 20 view .LVU108
 373 0076 0020     		movs	r0, #0
 374              	.LVL46:
  69:Core/Src/minmea.c ****     } else if (strict) {
 375              		.loc 1 69 20 view .LVU109
 376 0078 F8E7     		b	.L23
 377              	.LVL47:
 378              	.L36:
  69:Core/Src/minmea.c ****     } else if (strict) {
 379              		.loc 1 69 20 view .LVU110
ARM GAS  /var/folders/_g/2c7lhzm90n5_zxwlm2w6npkr0000gn/T//ccM86DqO.s 			page 15


 380              	.LBE3:
  81:Core/Src/minmea.c ****     }
 381              		.loc 1 81 16 view .LVU111
 382 007a 0020     		movs	r0, #0
 383 007c F6E7     		b	.L23
 384              	.L40:
 385 007e 00BF     		.align	2
 386              	.L39:
 387 0080 01000000 		.word	_ctype_+1
 388              		.cfi_endproc
 389              	.LFE7:
 391              		.section	.text.minmea_scan,"ax",%progbits
 392              		.align	1
 393              		.global	minmea_scan
 394              		.syntax unified
 395              		.thumb
 396              		.thumb_func
 398              	minmea_scan:
 399              	.LVL48:
 400              	.LFB8:
  86:Core/Src/minmea.c **** 
  87:Core/Src/minmea.c **** bool minmea_scan(const char *sentence, const char *format, ...)
  88:Core/Src/minmea.c **** {
 401              		.loc 1 88 1 is_stmt 1 view -0
 402              		.cfi_startproc
 403              		@ args = 4, pretend = 12, frame = 16
 404              		@ frame_needed = 0, uses_anonymous_args = 1
 405              		.loc 1 88 1 is_stmt 0 view .LVU113
 406 0000 0EB4     		push	{r1, r2, r3}
 407              		.cfi_def_cfa_offset 12
 408              		.cfi_offset 1, -12
 409              		.cfi_offset 2, -8
 410              		.cfi_offset 3, -4
 411 0002 2DE9F04F 		push	{r4, r5, r6, r7, r8, r9, r10, fp, lr}
 412              		.cfi_def_cfa_offset 48
 413              		.cfi_offset 4, -48
 414              		.cfi_offset 5, -44
 415              		.cfi_offset 6, -40
 416              		.cfi_offset 7, -36
 417              		.cfi_offset 8, -32
 418              		.cfi_offset 9, -28
 419              		.cfi_offset 10, -24
 420              		.cfi_offset 11, -20
 421              		.cfi_offset 14, -16
 422 0006 84B0     		sub	sp, sp, #16
 423              		.cfi_def_cfa_offset 64
 424 0008 0D9E     		ldr	r6, [sp, #52]
  89:Core/Src/minmea.c ****     bool result = false;
 425              		.loc 1 89 5 is_stmt 1 view .LVU114
 426              	.LVL49:
  90:Core/Src/minmea.c ****     bool optional = false;
 427              		.loc 1 90 5 view .LVU115
  91:Core/Src/minmea.c **** 
  92:Core/Src/minmea.c ****     if (sentence == NULL)
 428              		.loc 1 92 5 view .LVU116
 429              		.loc 1 92 8 is_stmt 0 view .LVU117
 430 000a 08B9     		cbnz	r0, .L130
ARM GAS  /var/folders/_g/2c7lhzm90n5_zxwlm2w6npkr0000gn/T//ccM86DqO.s 			page 16


  93:Core/Src/minmea.c ****         return false;
 431              		.loc 1 93 16 view .LVU118
 432 000c 0020     		movs	r0, #0
 433              	.LVL50:
 434              		.loc 1 93 16 view .LVU119
 435 000e 83E2     		b	.L42
 436              	.LVL51:
 437              	.L130:
 438              		.loc 1 93 16 view .LVU120
 439 0010 0446     		mov	r4, r0
  94:Core/Src/minmea.c **** 
  95:Core/Src/minmea.c ****     va_list ap;
 440              		.loc 1 95 5 is_stmt 1 view .LVU121
  96:Core/Src/minmea.c ****     va_start(ap, format);
 441              		.loc 1 96 5 view .LVU122
 442 0012 0EAB     		add	r3, sp, #56
 443 0014 0393     		str	r3, [sp, #12]
  97:Core/Src/minmea.c **** 
  98:Core/Src/minmea.c ****     const char *field = sentence;
 444              		.loc 1 98 5 view .LVU123
 445              	.LVL52:
  99:Core/Src/minmea.c **** #define next_field() \
 100:Core/Src/minmea.c ****     do { \
 101:Core/Src/minmea.c ****         /* Progress to the next field. */ \
 102:Core/Src/minmea.c ****         while (minmea_isfield(*sentence)) \
 103:Core/Src/minmea.c ****             sentence++; \
 104:Core/Src/minmea.c ****         /* Make sure there is a field there. */ \
 105:Core/Src/minmea.c ****         if (*sentence == ',') { \
 106:Core/Src/minmea.c ****             sentence++; \
 107:Core/Src/minmea.c ****             field = sentence; \
 108:Core/Src/minmea.c ****         } else { \
 109:Core/Src/minmea.c ****             field = NULL; \
 110:Core/Src/minmea.c ****         } \
 111:Core/Src/minmea.c ****     } while (0)
 112:Core/Src/minmea.c **** 
 113:Core/Src/minmea.c ****     while (*format) {
 446              		.loc 1 113 5 view .LVU124
  98:Core/Src/minmea.c **** #define next_field() \
 447              		.loc 1 98 17 is_stmt 0 view .LVU125
 448 0016 0546     		mov	r5, r0
  90:Core/Src/minmea.c **** 
 449              		.loc 1 90 10 view .LVU126
 450 0018 0027     		movs	r7, #0
 451              		.loc 1 113 11 view .LVU127
 452 001a 03E2     		b	.L43
 453              	.LVL53:
 454              	.L146:
 455              	.LBB4:
 114:Core/Src/minmea.c ****         char type = *format++;
 115:Core/Src/minmea.c **** 
 116:Core/Src/minmea.c ****         if (type == ';') {
 117:Core/Src/minmea.c ****             // All further fields are optional.
 118:Core/Src/minmea.c ****             optional = true;
 119:Core/Src/minmea.c ****             continue;
 120:Core/Src/minmea.c ****         }
 121:Core/Src/minmea.c **** 
 122:Core/Src/minmea.c ****         if (!field && !optional) {
ARM GAS  /var/folders/_g/2c7lhzm90n5_zxwlm2w6npkr0000gn/T//ccM86DqO.s 			page 17


 456              		.loc 1 122 20 discriminator 1 view .LVU128
 457 001c 002F     		cmp	r7, #0
 458 001e 40F00A82 		bne	.L45
 459              	.LBE4:
  89:Core/Src/minmea.c ****     bool optional = false;
 460              		.loc 1 89 10 view .LVU129
 461 0022 3846     		mov	r0, r7
 462 0024 78E2     		b	.L42
 463              	.LVL54:
 464              	.L53:
 465              	.LBB40:
 466              	.LBB5:
 123:Core/Src/minmea.c ****             // Field requested but we ran out if input. Bail out.
 124:Core/Src/minmea.c ****             goto parse_error;
 125:Core/Src/minmea.c ****         }
 126:Core/Src/minmea.c **** 
 127:Core/Src/minmea.c ****         switch (type) {
 128:Core/Src/minmea.c ****             case 'c': { // Single character field (char).
 129:Core/Src/minmea.c ****                 char value = '\0';
 467              		.loc 1 129 17 is_stmt 1 view .LVU130
 130:Core/Src/minmea.c **** 
 131:Core/Src/minmea.c ****                 if (field && minmea_isfield(*field))
 468              		.loc 1 131 17 view .LVU131
 469              		.loc 1 131 20 is_stmt 0 view .LVU132
 470 0026 5DB1     		cbz	r5, .L102
 471              		.loc 1 131 30 discriminator 1 view .LVU133
 472 0028 2D78     		ldrb	r5, [r5]	@ zero_extendqisi2
 473              	.LVL55:
 474              		.loc 1 131 30 discriminator 1 view .LVU134
 475 002a 2846     		mov	r0, r5
 476 002c FFF7FEFF 		bl	minmea_isfield
 477              	.LVL56:
 478              		.loc 1 131 27 discriminator 1 view .LVU135
 479 0030 00B9     		cbnz	r0, .L57
 129:Core/Src/minmea.c **** 
 480              		.loc 1 129 22 view .LVU136
 481 0032 0025     		movs	r5, #0
 482              	.L57:
 483              	.LVL57:
 132:Core/Src/minmea.c ****                     value = *field;
 133:Core/Src/minmea.c **** 
 134:Core/Src/minmea.c ****                 *va_arg(ap, char *) = value;
 484              		.loc 1 134 17 is_stmt 1 view .LVU137
 485              		.loc 1 134 18 is_stmt 0 view .LVU138
 486 0034 039B     		ldr	r3, [sp, #12]
 487 0036 1A1D     		adds	r2, r3, #4
 488 0038 0392     		str	r2, [sp, #12]
 489 003a 1B68     		ldr	r3, [r3]
 490              		.loc 1 134 37 view .LVU139
 491 003c 1D70     		strb	r5, [r3]
 492              	.LBE5:
 135:Core/Src/minmea.c ****             } break;
 493              		.loc 1 135 15 is_stmt 1 view .LVU140
 494 003e E8E1     		b	.L95
 495              	.LVL58:
 496              	.L102:
 497              	.LBB6:
ARM GAS  /var/folders/_g/2c7lhzm90n5_zxwlm2w6npkr0000gn/T//ccM86DqO.s 			page 18


 129:Core/Src/minmea.c **** 
 498              		.loc 1 129 22 is_stmt 0 view .LVU141
 499 0040 0025     		movs	r5, #0
 500              	.LVL59:
 129:Core/Src/minmea.c **** 
 501              		.loc 1 129 22 view .LVU142
 502 0042 F7E7     		b	.L57
 503              	.LVL60:
 504              	.L52:
 129:Core/Src/minmea.c **** 
 505              		.loc 1 129 22 view .LVU143
 506              	.LBE6:
 507              	.LBB7:
 136:Core/Src/minmea.c **** 
 137:Core/Src/minmea.c ****             case 'd': { // Single character direction field (int).
 138:Core/Src/minmea.c ****                 int value = 0;
 508              		.loc 1 138 17 is_stmt 1 view .LVU144
 139:Core/Src/minmea.c **** 
 140:Core/Src/minmea.c ****                 if (field && minmea_isfield(*field)) {
 509              		.loc 1 140 17 view .LVU145
 510              		.loc 1 140 20 is_stmt 0 view .LVU146
 511 0044 FDB1     		cbz	r5, .L103
 512              		.loc 1 140 30 discriminator 1 view .LVU147
 513 0046 2D78     		ldrb	r5, [r5]	@ zero_extendqisi2
 514              	.LVL61:
 515              		.loc 1 140 30 discriminator 1 view .LVU148
 516 0048 2846     		mov	r0, r5
 517 004a FFF7FEFF 		bl	minmea_isfield
 518              	.LVL62:
 519              		.loc 1 140 27 discriminator 1 view .LVU149
 520 004e E0B1     		cbz	r0, .L104
 141:Core/Src/minmea.c ****                     switch (*field) {
 521              		.loc 1 141 21 is_stmt 1 view .LVU150
 522 0050 453D     		subs	r5, r5, #69
 523 0052 122D     		cmp	r5, #18
 524 0054 00F26582 		bhi	.L105
 525 0058 DFE815F0 		tbh	[pc, r5, lsl #1]
 526              	.L59:
 527 005c 1300     		.2byte	(.L60-.L59)/2
 528 005e 6302     		.2byte	(.L105-.L59)/2
 529 0060 6302     		.2byte	(.L105-.L59)/2
 530 0062 6302     		.2byte	(.L105-.L59)/2
 531 0064 6302     		.2byte	(.L105-.L59)/2
 532 0066 6302     		.2byte	(.L105-.L59)/2
 533 0068 6302     		.2byte	(.L105-.L59)/2
 534 006a 6302     		.2byte	(.L105-.L59)/2
 535 006c 6302     		.2byte	(.L105-.L59)/2
 536 006e 1300     		.2byte	(.L60-.L59)/2
 537 0070 6302     		.2byte	(.L105-.L59)/2
 538 0072 6302     		.2byte	(.L105-.L59)/2
 539 0074 6302     		.2byte	(.L105-.L59)/2
 540 0076 6302     		.2byte	(.L105-.L59)/2
 541 0078 1E00     		.2byte	(.L106-.L59)/2
 542 007a 6302     		.2byte	(.L105-.L59)/2
 543 007c 6302     		.2byte	(.L105-.L59)/2
 544 007e 6302     		.2byte	(.L105-.L59)/2
 545 0080 1E00     		.2byte	(.L106-.L59)/2
ARM GAS  /var/folders/_g/2c7lhzm90n5_zxwlm2w6npkr0000gn/T//ccM86DqO.s 			page 19


 546              		.p2align 1
 547              	.L60:
 548 0082 0121     		movs	r1, #1
 549 0084 02E0     		b	.L58
 550              	.LVL63:
 551              	.L103:
 138:Core/Src/minmea.c **** 
 552              		.loc 1 138 21 is_stmt 0 view .LVU151
 553 0086 0021     		movs	r1, #0
 554 0088 00E0     		b	.L58
 555              	.LVL64:
 556              	.L104:
 138:Core/Src/minmea.c **** 
 557              		.loc 1 138 21 view .LVU152
 558 008a 0021     		movs	r1, #0
 559              	.L58:
 560              	.LVL65:
 142:Core/Src/minmea.c ****                         case 'N':
 143:Core/Src/minmea.c ****                         case 'E':
 144:Core/Src/minmea.c ****                             value = 1;
 145:Core/Src/minmea.c ****                             break;
 146:Core/Src/minmea.c ****                         case 'S':
 147:Core/Src/minmea.c ****                         case 'W':
 148:Core/Src/minmea.c ****                             value = -1;
 149:Core/Src/minmea.c ****                             break;
 150:Core/Src/minmea.c ****                         default:
 151:Core/Src/minmea.c ****                             goto parse_error;
 152:Core/Src/minmea.c ****                     }
 153:Core/Src/minmea.c ****                 }
 154:Core/Src/minmea.c **** 
 155:Core/Src/minmea.c ****                 *va_arg(ap, int *) = value;
 561              		.loc 1 155 17 is_stmt 1 view .LVU153
 562              		.loc 1 155 18 is_stmt 0 view .LVU154
 563 008c 039B     		ldr	r3, [sp, #12]
 564 008e 1A1D     		adds	r2, r3, #4
 565 0090 0392     		str	r2, [sp, #12]
 566 0092 1B68     		ldr	r3, [r3]
 567              		.loc 1 155 36 view .LVU155
 568 0094 1960     		str	r1, [r3]
 569              	.LBE7:
 156:Core/Src/minmea.c ****             } break;
 570              		.loc 1 156 15 is_stmt 1 view .LVU156
 571 0096 BCE1     		b	.L95
 572              	.LVL66:
 573              	.L106:
 574              	.LBB8:
 148:Core/Src/minmea.c ****                             break;
 575              		.loc 1 148 35 is_stmt 0 view .LVU157
 576 0098 4FF0FF31 		mov	r1, #-1
 577 009c F6E7     		b	.L58
 578              	.LVL67:
 579              	.L51:
 148:Core/Src/minmea.c ****                             break;
 580              		.loc 1 148 35 view .LVU158
 581              	.LBE8:
 582              	.LBB9:
 157:Core/Src/minmea.c **** 
ARM GAS  /var/folders/_g/2c7lhzm90n5_zxwlm2w6npkr0000gn/T//ccM86DqO.s 			page 20


 158:Core/Src/minmea.c ****             case 'f': { // Fractional value with scale (struct minmea_float).
 159:Core/Src/minmea.c ****                 int sign = 0;
 583              		.loc 1 159 17 is_stmt 1 view .LVU159
 160:Core/Src/minmea.c ****                 int_least32_t value = -1;
 584              		.loc 1 160 17 view .LVU160
 161:Core/Src/minmea.c ****                 int_least32_t scale = 0;
 585              		.loc 1 161 17 view .LVU161
 162:Core/Src/minmea.c **** 
 163:Core/Src/minmea.c ****                 if (field) {
 586              		.loc 1 163 17 view .LVU162
 587              		.loc 1 163 20 is_stmt 0 view .LVU163
 588 009e 002D     		cmp	r5, #0
 589 00a0 40F08380 		bne	.L107
 161:Core/Src/minmea.c ****                 int_least32_t scale = 0;
 590              		.loc 1 161 31 view .LVU164
 591 00a4 4FF0000A 		mov	r10, #0
 160:Core/Src/minmea.c ****                 int_least32_t scale = 0;
 592              		.loc 1 160 31 view .LVU165
 593 00a8 4FF0FF39 		mov	r9, #-1
 159:Core/Src/minmea.c ****                 int_least32_t value = -1;
 594              		.loc 1 159 21 view .LVU166
 595 00ac D346     		mov	fp, r10
 596              	.LVL68:
 597              	.L62:
 164:Core/Src/minmea.c ****                     while (minmea_isfield(*field)) {
 165:Core/Src/minmea.c ****                         if (*field == '+' && !sign && value == -1) {
 166:Core/Src/minmea.c ****                             sign = 1;
 167:Core/Src/minmea.c ****                         } else if (*field == '-' && !sign && value == -1) {
 168:Core/Src/minmea.c ****                             sign = -1;
 169:Core/Src/minmea.c ****                         } else if (isdigit((unsigned char) *field)) {
 170:Core/Src/minmea.c ****                             int digit = *field - '0';
 171:Core/Src/minmea.c ****                             if (value == -1)
 172:Core/Src/minmea.c ****                                 value = 0;
 173:Core/Src/minmea.c ****                             if (value > (INT_LEAST32_MAX-digit) / 10) {
 174:Core/Src/minmea.c ****                                 /* we ran out of bits, what do we do? */
 175:Core/Src/minmea.c ****                                 if (scale) {
 176:Core/Src/minmea.c ****                                     /* truncate extra precision */
 177:Core/Src/minmea.c ****                                     break;
 178:Core/Src/minmea.c ****                                 } else {
 179:Core/Src/minmea.c ****                                     /* integer overflow. bail out. */
 180:Core/Src/minmea.c ****                                     goto parse_error;
 181:Core/Src/minmea.c ****                                 }
 182:Core/Src/minmea.c ****                             }
 183:Core/Src/minmea.c ****                             value = (10 * value) + digit;
 184:Core/Src/minmea.c ****                             if (scale)
 185:Core/Src/minmea.c ****                                 scale *= 10;
 186:Core/Src/minmea.c ****                         } else if (*field == '.' && scale == 0) {
 187:Core/Src/minmea.c ****                             scale = 1;
 188:Core/Src/minmea.c ****                         } else if (*field == ' ') {
 189:Core/Src/minmea.c ****                             /* Allow spaces at the start of the field. Not NMEA
 190:Core/Src/minmea.c ****                              * conformant, but some modules do this. */
 191:Core/Src/minmea.c ****                             if (sign != 0 || value != -1 || scale != 0)
 192:Core/Src/minmea.c ****                                 goto parse_error;
 193:Core/Src/minmea.c ****                         } else {
 194:Core/Src/minmea.c ****                             goto parse_error;
 195:Core/Src/minmea.c ****                         }
 196:Core/Src/minmea.c ****                         field++;
ARM GAS  /var/folders/_g/2c7lhzm90n5_zxwlm2w6npkr0000gn/T//ccM86DqO.s 			page 21


 197:Core/Src/minmea.c ****                     }
 198:Core/Src/minmea.c ****                 }
 199:Core/Src/minmea.c **** 
 200:Core/Src/minmea.c ****                 if ((sign || scale) && value == -1)
 598              		.loc 1 200 17 is_stmt 1 view .LVU167
 599              		.loc 1 200 20 is_stmt 0 view .LVU168
 600 00ae BBF1000F 		cmp	fp, #0
 601 00b2 02D1     		bne	.L71
 602              		.loc 1 200 27 discriminator 2 view .LVU169
 603 00b4 BAF1000F 		cmp	r10, #0
 604 00b8 7DD0     		beq	.L72
 605              	.L71:
 606              		.loc 1 200 37 discriminator 3 view .LVU170
 607 00ba B9F1FF3F 		cmp	r9, #-1
 608 00be 00F03A82 		beq	.L131
 609              	.L73:
 201:Core/Src/minmea.c ****                     goto parse_error;
 202:Core/Src/minmea.c **** 
 203:Core/Src/minmea.c ****                 if (value == -1) {
 204:Core/Src/minmea.c ****                     /* No digits were scanned. */
 205:Core/Src/minmea.c ****                     value = 0;
 206:Core/Src/minmea.c ****                     scale = 0;
 207:Core/Src/minmea.c ****                 } else if (scale == 0) {
 610              		.loc 1 207 24 is_stmt 1 view .LVU171
 611              		.loc 1 207 27 is_stmt 0 view .LVU172
 612 00c2 BAF1000F 		cmp	r10, #0
 613 00c6 7BD0     		beq	.L118
 614              	.LVL69:
 615              	.L74:
 208:Core/Src/minmea.c ****                     /* No decimal point. */
 209:Core/Src/minmea.c ****                     scale = 1;
 210:Core/Src/minmea.c ****                 }
 211:Core/Src/minmea.c ****                 if (sign)
 616              		.loc 1 211 17 is_stmt 1 view .LVU173
 617              		.loc 1 211 20 is_stmt 0 view .LVU174
 618 00c8 BBF1000F 		cmp	fp, #0
 619 00cc 01D0     		beq	.L75
 212:Core/Src/minmea.c ****                     value *= sign;
 620              		.loc 1 212 21 is_stmt 1 view .LVU175
 621              		.loc 1 212 27 is_stmt 0 view .LVU176
 622 00ce 0BFB09F9 		mul	r9, fp, r9
 623              	.LVL70:
 624              	.L75:
 213:Core/Src/minmea.c **** 
 214:Core/Src/minmea.c ****                 *va_arg(ap, struct minmea_float *) = (struct minmea_float) {value, scale};
 625              		.loc 1 214 17 is_stmt 1 view .LVU177
 626              		.loc 1 214 18 is_stmt 0 view .LVU178
 627 00d2 039B     		ldr	r3, [sp, #12]
 628 00d4 1A1D     		adds	r2, r3, #4
 629 00d6 0392     		str	r2, [sp, #12]
 630 00d8 1B68     		ldr	r3, [r3]
 631              		.loc 1 214 52 view .LVU179
 632 00da C3F80090 		str	r9, [r3]
 633 00de C3F804A0 		str	r10, [r3, #4]
 634              	.LBE9:
 215:Core/Src/minmea.c ****             } break;
 635              		.loc 1 215 15 is_stmt 1 view .LVU180
ARM GAS  /var/folders/_g/2c7lhzm90n5_zxwlm2w6npkr0000gn/T//ccM86DqO.s 			page 22


 636 00e2 96E1     		b	.L95
 637              	.L134:
 638              	.LBB12:
 165:Core/Src/minmea.c ****                             sign = 1;
 639              		.loc 1 165 43 is_stmt 0 discriminator 1 view .LVU181
 640 00e4 BBF1000F 		cmp	fp, #0
 641 00e8 33D1     		bne	.L63
 165:Core/Src/minmea.c ****                             sign = 1;
 642              		.loc 1 165 52 discriminator 2 view .LVU182
 643 00ea B9F1FF3F 		cmp	r9, #-1
 644 00ee 30D1     		bne	.L63
 166:Core/Src/minmea.c ****                         } else if (*field == '-' && !sign && value == -1) {
 645              		.loc 1 166 34 view .LVU183
 646 00f0 4FF0010B 		mov	fp, #1
 647              	.LVL71:
 166:Core/Src/minmea.c ****                         } else if (*field == '-' && !sign && value == -1) {
 648              		.loc 1 166 34 view .LVU184
 649 00f4 22E0     		b	.L64
 650              	.LVL72:
 651              	.L135:
 167:Core/Src/minmea.c ****                             sign = -1;
 652              		.loc 1 167 50 discriminator 1 view .LVU185
 653 00f6 BBF1000F 		cmp	fp, #0
 654 00fa 2DD1     		bne	.L65
 167:Core/Src/minmea.c ****                             sign = -1;
 655              		.loc 1 167 59 discriminator 2 view .LVU186
 656 00fc B9F1FF3F 		cmp	r9, #-1
 657 0100 2AD1     		bne	.L65
 168:Core/Src/minmea.c ****                         } else if (isdigit((unsigned char) *field)) {
 658              		.loc 1 168 34 view .LVU187
 659 0102 CB46     		mov	fp, r9
 660              	.LVL73:
 168:Core/Src/minmea.c ****                         } else if (isdigit((unsigned char) *field)) {
 661              		.loc 1 168 34 view .LVU188
 662 0104 1AE0     		b	.L64
 663              	.LVL74:
 664              	.L136:
 665              	.LBB10:
 172:Core/Src/minmea.c ****                             if (value > (INT_LEAST32_MAX-digit) / 10) {
 666              		.loc 1 172 39 view .LVU189
 667 0106 4FF00009 		mov	r9, #0
 668              	.LVL75:
 172:Core/Src/minmea.c ****                             if (value > (INT_LEAST32_MAX-digit) / 10) {
 669              		.loc 1 172 39 view .LVU190
 670 010a 30E0     		b	.L67
 671              	.LVL76:
 672              	.L137:
 175:Core/Src/minmea.c ****                                     /* truncate extra precision */
 673              		.loc 1 175 33 is_stmt 1 view .LVU191
 175:Core/Src/minmea.c ****                                     /* truncate extra precision */
 674              		.loc 1 175 36 is_stmt 0 view .LVU192
 675 010c BAF1000F 		cmp	r10, #0
 676 0110 CDD1     		bne	.L62
 677              	.LBE10:
 678              	.LBE12:
 679              	.LBE40:
  89:Core/Src/minmea.c ****     bool optional = false;
ARM GAS  /var/folders/_g/2c7lhzm90n5_zxwlm2w6npkr0000gn/T//ccM86DqO.s 			page 23


 680              		.loc 1 89 10 view .LVU193
 681 0112 0020     		movs	r0, #0
 682 0114 00E2     		b	.L42
 683              	.LVL77:
 684              	.L66:
 685              	.LBB41:
 686              	.LBB13:
 186:Core/Src/minmea.c ****                             scale = 1;
 687              		.loc 1 186 32 is_stmt 1 view .LVU194
 186:Core/Src/minmea.c ****                             scale = 1;
 688              		.loc 1 186 35 is_stmt 0 view .LVU195
 689 0116 B8F12E0F 		cmp	r8, #46
 690 011a 40D0     		beq	.L132
 691              	.L69:
 188:Core/Src/minmea.c ****                             /* Allow spaces at the start of the field. Not NMEA
 692              		.loc 1 188 32 is_stmt 1 view .LVU196
 188:Core/Src/minmea.c ****                             /* Allow spaces at the start of the field. Not NMEA
 693              		.loc 1 188 35 is_stmt 0 view .LVU197
 694 011c B8F1200F 		cmp	r8, #32
 695 0120 40F00182 		bne	.L112
 191:Core/Src/minmea.c ****                                 goto parse_error;
 696              		.loc 1 191 29 is_stmt 1 view .LVU198
 191:Core/Src/minmea.c ****                                 goto parse_error;
 697              		.loc 1 191 32 is_stmt 0 view .LVU199
 698 0124 BBF1000F 		cmp	fp, #0
 699 0128 40F0FF81 		bne	.L113
 191:Core/Src/minmea.c ****                                 goto parse_error;
 700              		.loc 1 191 43 discriminator 1 view .LVU200
 701 012c B9F1FF3F 		cmp	r9, #-1
 702 0130 40F0FD81 		bne	.L114
 191:Core/Src/minmea.c ****                                 goto parse_error;
 703              		.loc 1 191 58 discriminator 2 view .LVU201
 704 0134 BAF1000F 		cmp	r10, #0
 705 0138 40F0FB81 		bne	.L133
 706              	.LVL78:
 707              	.L64:
 196:Core/Src/minmea.c ****                     }
 708              		.loc 1 196 25 is_stmt 1 view .LVU202
 196:Core/Src/minmea.c ****                     }
 709              		.loc 1 196 30 is_stmt 0 view .LVU203
 710 013c 0135     		adds	r5, r5, #1
 711              	.LVL79:
 712              	.L61:
 164:Core/Src/minmea.c ****                         if (*field == '+' && !sign && value == -1) {
 713              		.loc 1 164 28 is_stmt 1 view .LVU204
 714 013e 95F80080 		ldrb	r8, [r5]	@ zero_extendqisi2
 715 0142 4046     		mov	r0, r8
 716 0144 FFF7FEFF 		bl	minmea_isfield
 717              	.LVL80:
 718 0148 0028     		cmp	r0, #0
 719 014a B0D0     		beq	.L62
 165:Core/Src/minmea.c ****                             sign = 1;
 720              		.loc 1 165 25 view .LVU205
 165:Core/Src/minmea.c ****                             sign = 1;
 721              		.loc 1 165 28 is_stmt 0 view .LVU206
 722 014c B8F12B0F 		cmp	r8, #43
 723 0150 C8D0     		beq	.L134
ARM GAS  /var/folders/_g/2c7lhzm90n5_zxwlm2w6npkr0000gn/T//ccM86DqO.s 			page 24


 724              	.L63:
 167:Core/Src/minmea.c ****                             sign = -1;
 725              		.loc 1 167 32 is_stmt 1 view .LVU207
 167:Core/Src/minmea.c ****                             sign = -1;
 726              		.loc 1 167 35 is_stmt 0 view .LVU208
 727 0152 B8F12D0F 		cmp	r8, #45
 728 0156 CED0     		beq	.L135
 729              	.L65:
 169:Core/Src/minmea.c ****                             int digit = *field - '0';
 730              		.loc 1 169 32 is_stmt 1 view .LVU209
 169:Core/Src/minmea.c ****                             int digit = *field - '0';
 731              		.loc 1 169 36 is_stmt 0 view .LVU210
 732 0158 A94B     		ldr	r3, .L147
 733 015a 13F80830 		ldrb	r3, [r3, r8]	@ zero_extendqisi2
 169:Core/Src/minmea.c ****                             int digit = *field - '0';
 734              		.loc 1 169 35 view .LVU211
 735 015e 13F0040F 		tst	r3, #4
 736 0162 D8D0     		beq	.L66
 737              	.LBB11:
 170:Core/Src/minmea.c ****                             if (value == -1)
 738              		.loc 1 170 29 is_stmt 1 view .LVU212
 170:Core/Src/minmea.c ****                             if (value == -1)
 739              		.loc 1 170 33 is_stmt 0 view .LVU213
 740 0164 A8F13008 		sub	r8, r8, #48
 741              	.LVL81:
 171:Core/Src/minmea.c ****                                 value = 0;
 742              		.loc 1 171 29 is_stmt 1 view .LVU214
 171:Core/Src/minmea.c ****                                 value = 0;
 743              		.loc 1 171 32 is_stmt 0 view .LVU215
 744 0168 B9F1FF3F 		cmp	r9, #-1
 745 016c CBD0     		beq	.L136
 746              	.LVL82:
 747              	.L67:
 173:Core/Src/minmea.c ****                                 /* we ran out of bits, what do we do? */
 748              		.loc 1 173 29 is_stmt 1 view .LVU216
 173:Core/Src/minmea.c ****                                 /* we ran out of bits, what do we do? */
 749              		.loc 1 173 57 is_stmt 0 view .LVU217
 750 016e 6FF00043 		mvn	r3, #-2147483648
 751 0172 A3EB0803 		sub	r3, r3, r8
 173:Core/Src/minmea.c ****                                 /* we ran out of bits, what do we do? */
 752              		.loc 1 173 65 view .LVU218
 753 0176 A34A     		ldr	r2, .L147+4
 754 0178 82FB0312 		smull	r1, r2, r2, r3
 755 017c DB17     		asrs	r3, r3, #31
 756 017e C3EBA203 		rsb	r3, r3, r2, asr #2
 173:Core/Src/minmea.c ****                                 /* we ran out of bits, what do we do? */
 757              		.loc 1 173 32 view .LVU219
 758 0182 4B45     		cmp	r3, r9
 759 0184 C2DB     		blt	.L137
 183:Core/Src/minmea.c ****                             if (scale)
 760              		.loc 1 183 29 is_stmt 1 view .LVU220
 183:Core/Src/minmea.c ****                             if (scale)
 761              		.loc 1 183 41 is_stmt 0 view .LVU221
 762 0186 09EB8909 		add	r9, r9, r9, lsl #2
 763              	.LVL83:
 183:Core/Src/minmea.c ****                             if (scale)
 764              		.loc 1 183 35 view .LVU222
ARM GAS  /var/folders/_g/2c7lhzm90n5_zxwlm2w6npkr0000gn/T//ccM86DqO.s 			page 25


 765 018a 08EB4909 		add	r9, r8, r9, lsl #1
 766              	.LVL84:
 184:Core/Src/minmea.c ****                                 scale *= 10;
 767              		.loc 1 184 29 is_stmt 1 view .LVU223
 184:Core/Src/minmea.c ****                                 scale *= 10;
 768              		.loc 1 184 32 is_stmt 0 view .LVU224
 769 018e BAF1000F 		cmp	r10, #0
 770 0192 D3D0     		beq	.L64
 185:Core/Src/minmea.c ****                         } else if (*field == '.' && scale == 0) {
 771              		.loc 1 185 33 is_stmt 1 view .LVU225
 185:Core/Src/minmea.c ****                         } else if (*field == '.' && scale == 0) {
 772              		.loc 1 185 39 is_stmt 0 view .LVU226
 773 0194 0AEB8A0A 		add	r10, r10, r10, lsl #2
 774              	.LVL85:
 185:Core/Src/minmea.c ****                         } else if (*field == '.' && scale == 0) {
 775              		.loc 1 185 39 view .LVU227
 776 0198 4FEA4A0A 		lsl	r10, r10, #1
 777              	.LVL86:
 185:Core/Src/minmea.c ****                         } else if (*field == '.' && scale == 0) {
 778              		.loc 1 185 39 view .LVU228
 779 019c CEE7     		b	.L64
 780              	.LVL87:
 781              	.L132:
 185:Core/Src/minmea.c ****                         } else if (*field == '.' && scale == 0) {
 782              		.loc 1 185 39 view .LVU229
 783              	.LBE11:
 186:Core/Src/minmea.c ****                             scale = 1;
 784              		.loc 1 186 50 discriminator 1 view .LVU230
 785 019e BAF1000F 		cmp	r10, #0
 786 01a2 BBD1     		bne	.L69
 187:Core/Src/minmea.c ****                         } else if (*field == ' ') {
 787              		.loc 1 187 35 view .LVU231
 788 01a4 4FF0010A 		mov	r10, #1
 789              	.LVL88:
 187:Core/Src/minmea.c ****                         } else if (*field == ' ') {
 790              		.loc 1 187 35 view .LVU232
 791 01a8 C8E7     		b	.L64
 792              	.LVL89:
 793              	.L107:
 161:Core/Src/minmea.c **** 
 794              		.loc 1 161 31 view .LVU233
 795 01aa 4FF0000A 		mov	r10, #0
 160:Core/Src/minmea.c ****                 int_least32_t scale = 0;
 796              		.loc 1 160 31 view .LVU234
 797 01ae 4FF0FF39 		mov	r9, #-1
 159:Core/Src/minmea.c ****                 int_least32_t value = -1;
 798              		.loc 1 159 21 view .LVU235
 799 01b2 D346     		mov	fp, r10
 800 01b4 C3E7     		b	.L61
 801              	.LVL90:
 802              	.L72:
 203:Core/Src/minmea.c ****                     /* No digits were scanned. */
 803              		.loc 1 203 17 is_stmt 1 view .LVU236
 203:Core/Src/minmea.c ****                     /* No digits were scanned. */
 804              		.loc 1 203 20 is_stmt 0 view .LVU237
 805 01b6 B9F1FF3F 		cmp	r9, #-1
 806 01ba 82D1     		bne	.L73
ARM GAS  /var/folders/_g/2c7lhzm90n5_zxwlm2w6npkr0000gn/T//ccM86DqO.s 			page 26


 205:Core/Src/minmea.c ****                     scale = 0;
 807              		.loc 1 205 27 view .LVU238
 808 01bc D146     		mov	r9, r10
 809              	.LVL91:
 205:Core/Src/minmea.c ****                     scale = 0;
 810              		.loc 1 205 27 view .LVU239
 811 01be 83E7     		b	.L74
 812              	.LVL92:
 813              	.L118:
 209:Core/Src/minmea.c ****                 }
 814              		.loc 1 209 27 view .LVU240
 815 01c0 4FF0010A 		mov	r10, #1
 816              	.LVL93:
 209:Core/Src/minmea.c ****                 }
 817              		.loc 1 209 27 view .LVU241
 818 01c4 80E7     		b	.L74
 819              	.LVL94:
 820              	.L50:
 209:Core/Src/minmea.c ****                 }
 821              		.loc 1 209 27 view .LVU242
 822              	.LBE13:
 823              	.LBB14:
 216:Core/Src/minmea.c **** 
 217:Core/Src/minmea.c ****             case 'i': { // Integer value, default 0 (int).
 218:Core/Src/minmea.c ****                 int value = 0;
 824              		.loc 1 218 17 is_stmt 1 view .LVU243
 219:Core/Src/minmea.c **** 
 220:Core/Src/minmea.c ****                 if (field) {
 825              		.loc 1 220 17 view .LVU244
 826              		.loc 1 220 20 is_stmt 0 view .LVU245
 827 01c6 95B1     		cbz	r5, .L119
 828              	.LBB15:
 221:Core/Src/minmea.c ****                     char *endptr;
 829              		.loc 1 221 21 is_stmt 1 view .LVU246
 222:Core/Src/minmea.c ****                     value = strtol(field, &endptr, 10);
 830              		.loc 1 222 21 view .LVU247
 831              		.loc 1 222 29 is_stmt 0 view .LVU248
 832 01c8 0A22     		movs	r2, #10
 833 01ca 02A9     		add	r1, sp, #8
 834 01cc 2846     		mov	r0, r5
 835 01ce FFF7FEFF 		bl	strtol
 836              	.LVL95:
 837              		.loc 1 222 29 view .LVU249
 838 01d2 0546     		mov	r5, r0
 839              	.LVL96:
 223:Core/Src/minmea.c ****                     if (minmea_isfield(*endptr))
 840              		.loc 1 223 21 is_stmt 1 view .LVU250
 841              		.loc 1 223 25 is_stmt 0 view .LVU251
 842 01d4 029B     		ldr	r3, [sp, #8]
 843 01d6 1878     		ldrb	r0, [r3]	@ zero_extendqisi2
 844              	.LVL97:
 845              		.loc 1 223 25 view .LVU252
 846 01d8 FFF7FEFF 		bl	minmea_isfield
 847              	.LVL98:
 848              		.loc 1 223 24 view .LVU253
 849 01dc 28B9     		cbnz	r0, .L138
 850              	.LVL99:
ARM GAS  /var/folders/_g/2c7lhzm90n5_zxwlm2w6npkr0000gn/T//ccM86DqO.s 			page 27


 851              	.L76:
 852              		.loc 1 223 24 view .LVU254
 853              	.LBE15:
 224:Core/Src/minmea.c ****                         goto parse_error;
 225:Core/Src/minmea.c ****                 }
 226:Core/Src/minmea.c **** 
 227:Core/Src/minmea.c ****                 *va_arg(ap, int *) = value;
 854              		.loc 1 227 17 is_stmt 1 view .LVU255
 855              		.loc 1 227 18 is_stmt 0 view .LVU256
 856 01de 039B     		ldr	r3, [sp, #12]
 857 01e0 1A1D     		adds	r2, r3, #4
 858 01e2 0392     		str	r2, [sp, #12]
 859 01e4 1B68     		ldr	r3, [r3]
 860              		.loc 1 227 36 view .LVU257
 861 01e6 1D60     		str	r5, [r3]
 862              	.LBE14:
 228:Core/Src/minmea.c ****             } break;
 863              		.loc 1 228 15 is_stmt 1 view .LVU258
 864 01e8 13E1     		b	.L95
 865              	.L138:
 866              	.LBB17:
 867              	.LBB16:
 224:Core/Src/minmea.c ****                         goto parse_error;
 868              		.loc 1 224 25 view .LVU259
 869              	.LBE16:
 870              	.LBE17:
 871              	.LBE41:
  89:Core/Src/minmea.c ****     bool optional = false;
 872              		.loc 1 89 10 is_stmt 0 view .LVU260
 873 01ea 0020     		movs	r0, #0
 874 01ec 94E1     		b	.L42
 875              	.LVL100:
 876              	.L119:
 877              	.LBB42:
 878              	.LBB18:
 218:Core/Src/minmea.c **** 
 879              		.loc 1 218 21 view .LVU261
 880 01ee 0025     		movs	r5, #0
 881              	.LVL101:
 218:Core/Src/minmea.c **** 
 882              		.loc 1 218 21 view .LVU262
 883 01f0 F5E7     		b	.L76
 884              	.LVL102:
 885              	.L49:
 218:Core/Src/minmea.c **** 
 886              		.loc 1 218 21 view .LVU263
 887              	.LBE18:
 888              	.LBB19:
 229:Core/Src/minmea.c **** 
 230:Core/Src/minmea.c ****             case 's': { // String value (char *).
 231:Core/Src/minmea.c ****                 char *buf = va_arg(ap, char *);
 889              		.loc 1 231 17 is_stmt 1 view .LVU264
 890              		.loc 1 231 23 is_stmt 0 view .LVU265
 891 01f2 039B     		ldr	r3, [sp, #12]
 892              	.LVL103:
 893              		.loc 1 231 23 view .LVU266
 894 01f4 1A1D     		adds	r2, r3, #4
ARM GAS  /var/folders/_g/2c7lhzm90n5_zxwlm2w6npkr0000gn/T//ccM86DqO.s 			page 28


 895 01f6 0392     		str	r2, [sp, #12]
 896              	.LVL104:
 897              		.loc 1 231 23 view .LVU267
 898 01f8 D3F80080 		ldr	r8, [r3]
 232:Core/Src/minmea.c **** 
 233:Core/Src/minmea.c ****                 if (field) {
 899              		.loc 1 233 17 is_stmt 1 view .LVU268
 900              		.loc 1 233 20 is_stmt 0 view .LVU269
 901 01fc 1DB9     		cbnz	r5, .L78
 902              	.L79:
 903              	.LVL105:
 234:Core/Src/minmea.c ****                     while (minmea_isfield(*field))
 235:Core/Src/minmea.c ****                         *buf++ = *field++;
 236:Core/Src/minmea.c ****                 }
 237:Core/Src/minmea.c **** 
 238:Core/Src/minmea.c ****                 *buf = '\0';
 904              		.loc 1 238 17 is_stmt 1 view .LVU270
 905              		.loc 1 238 22 is_stmt 0 view .LVU271
 906 01fe 0023     		movs	r3, #0
 907 0200 88F80030 		strb	r3, [r8]
 908              	.LBE19:
 239:Core/Src/minmea.c ****             } break;
 909              		.loc 1 239 15 is_stmt 1 view .LVU272
 910 0204 05E1     		b	.L95
 911              	.LVL106:
 912              	.L78:
 913              	.LBB20:
 234:Core/Src/minmea.c ****                     while (minmea_isfield(*field))
 914              		.loc 1 234 28 view .LVU273
 915 0206 95F80090 		ldrb	r9, [r5]	@ zero_extendqisi2
 916 020a 4846     		mov	r0, r9
 917 020c FFF7FEFF 		bl	minmea_isfield
 918              	.LVL107:
 919 0210 0028     		cmp	r0, #0
 920 0212 F4D0     		beq	.L79
 235:Core/Src/minmea.c ****                 }
 921              		.loc 1 235 25 view .LVU274
 235:Core/Src/minmea.c ****                 }
 922              		.loc 1 235 40 is_stmt 0 view .LVU275
 923 0214 0135     		adds	r5, r5, #1
 924              	.LVL108:
 235:Core/Src/minmea.c ****                 }
 925              		.loc 1 235 29 view .LVU276
 926 0216 4346     		mov	r3, r8
 927              	.LVL109:
 235:Core/Src/minmea.c ****                 }
 928              		.loc 1 235 32 view .LVU277
 929 0218 03F8019B 		strb	r9, [r3], #1
 930              	.LVL110:
 235:Core/Src/minmea.c ****                 }
 931              		.loc 1 235 29 view .LVU278
 932 021c 9846     		mov	r8, r3
 933 021e F2E7     		b	.L78
 934              	.LVL111:
 935              	.L47:
 235:Core/Src/minmea.c ****                 }
 936              		.loc 1 235 29 view .LVU279
ARM GAS  /var/folders/_g/2c7lhzm90n5_zxwlm2w6npkr0000gn/T//ccM86DqO.s 			page 29


 937              	.LBE20:
 938              	.LBB21:
 240:Core/Src/minmea.c **** 
 241:Core/Src/minmea.c ****             case 't': { // NMEA talker+sentence identifier (char *).
 242:Core/Src/minmea.c ****                 // This field is always mandatory.
 243:Core/Src/minmea.c ****                 if (!field)
 939              		.loc 1 243 17 is_stmt 1 view .LVU280
 940              		.loc 1 243 20 is_stmt 0 view .LVU281
 941 0220 002D     		cmp	r5, #0
 942 0222 00F08A81 		beq	.L120
 244:Core/Src/minmea.c ****                     goto parse_error;
 245:Core/Src/minmea.c **** 
 246:Core/Src/minmea.c ****                 if (field[0] != '$')
 943              		.loc 1 246 17 is_stmt 1 view .LVU282
 944              		.loc 1 246 26 is_stmt 0 view .LVU283
 945 0226 2B78     		ldrb	r3, [r5]	@ zero_extendqisi2
 946              	.LVL112:
 947              		.loc 1 246 20 view .LVU284
 948 0228 242B     		cmp	r3, #36
 949 022a 40F08881 		bne	.L121
 950              	.LBB22:
 247:Core/Src/minmea.c ****                     goto parse_error;
 248:Core/Src/minmea.c ****                 for (int f=0; f<5; f++)
 951              		.loc 1 248 26 view .LVU285
 952 022e 4FF00008 		mov	r8, #0
 953              	.LVL113:
 954              	.L81:
 955              		.loc 1 248 32 is_stmt 1 discriminator 1 view .LVU286
 956 0232 B8F1040F 		cmp	r8, #4
 957 0236 08DC     		bgt	.L139
 249:Core/Src/minmea.c ****                     if (!minmea_isfield(field[1+f]))
 958              		.loc 1 249 21 view .LVU287
 959              		.loc 1 249 48 is_stmt 0 view .LVU288
 960 0238 08F10108 		add	r8, r8, #1
 961              	.LVL114:
 962              		.loc 1 249 26 view .LVU289
 963 023c 15F80800 		ldrb	r0, [r5, r8]	@ zero_extendqisi2
 964 0240 FFF7FEFF 		bl	minmea_isfield
 965              	.LVL115:
 966              		.loc 1 249 24 view .LVU290
 967 0244 0028     		cmp	r0, #0
 968 0246 F4D1     		bne	.L81
 969 0248 66E1     		b	.L42
 970              	.LVL116:
 971              	.L139:
 972              		.loc 1 249 24 view .LVU291
 973              	.LBE22:
 250:Core/Src/minmea.c ****                         goto parse_error;
 251:Core/Src/minmea.c **** 
 252:Core/Src/minmea.c ****                 char *buf = va_arg(ap, char *);
 974              		.loc 1 252 17 is_stmt 1 view .LVU292
 975              		.loc 1 252 23 is_stmt 0 view .LVU293
 976 024a 039B     		ldr	r3, [sp, #12]
 977 024c 1A1D     		adds	r2, r3, #4
 978 024e 0392     		str	r2, [sp, #12]
 979 0250 1B68     		ldr	r3, [r3]
 253:Core/Src/minmea.c ****                 memcpy(buf, field+1, 5);
ARM GAS  /var/folders/_g/2c7lhzm90n5_zxwlm2w6npkr0000gn/T//ccM86DqO.s 			page 30


 980              		.loc 1 253 17 is_stmt 1 view .LVU294
 981 0252 D5F80120 		ldr	r2, [r5, #1]	@ unaligned
 982 0256 1A60     		str	r2, [r3]	@ unaligned
 983 0258 6A79     		ldrb	r2, [r5, #5]	@ zero_extendqisi2
 984 025a 1A71     		strb	r2, [r3, #4]
 254:Core/Src/minmea.c ****                 buf[5] = '\0';
 985              		.loc 1 254 17 view .LVU295
 986              		.loc 1 254 24 is_stmt 0 view .LVU296
 987 025c 0022     		movs	r2, #0
 988 025e 5A71     		strb	r2, [r3, #5]
 989              	.LBE21:
 255:Core/Src/minmea.c ****             } break;
 990              		.loc 1 255 15 is_stmt 1 view .LVU297
 991 0260 D7E0     		b	.L95
 992              	.LVL117:
 993              	.L56:
 994              	.LBB23:
 256:Core/Src/minmea.c **** 
 257:Core/Src/minmea.c ****             case 'D': { // Date (int, int, int), -1 if empty.
 258:Core/Src/minmea.c ****                 struct minmea_date *date = va_arg(ap, struct minmea_date *);
 995              		.loc 1 258 17 view .LVU298
 996              		.loc 1 258 37 is_stmt 0 view .LVU299
 997 0262 039B     		ldr	r3, [sp, #12]
 998              	.LVL118:
 999              		.loc 1 258 37 view .LVU300
 1000 0264 1A1D     		adds	r2, r3, #4
 1001 0266 0392     		str	r2, [sp, #12]
 1002              	.LVL119:
 1003              		.loc 1 258 37 view .LVU301
 1004 0268 D3F80080 		ldr	r8, [r3]
 259:Core/Src/minmea.c **** 
 260:Core/Src/minmea.c ****                 int d = -1, m = -1, y = -1;
 1005              		.loc 1 260 17 is_stmt 1 view .LVU302
 1006              	.LVL120:
 261:Core/Src/minmea.c **** 
 262:Core/Src/minmea.c ****                 if (field && minmea_isfield(*field)) {
 1007              		.loc 1 262 17 view .LVU303
 1008              		.loc 1 262 20 is_stmt 0 view .LVU304
 1009 026c 002D     		cmp	r5, #0
 1010 026e 48D0     		beq	.L122
 1011              		.loc 1 262 30 discriminator 1 view .LVU305
 1012 0270 95F80090 		ldrb	r9, [r5]	@ zero_extendqisi2
 1013 0274 4846     		mov	r0, r9
 1014 0276 FFF7FEFF 		bl	minmea_isfield
 1015              	.LVL121:
 1016              		.loc 1 262 27 discriminator 1 view .LVU306
 1017 027a 60B9     		cbnz	r0, .L123
 260:Core/Src/minmea.c **** 
 1018              		.loc 1 260 37 view .LVU307
 1019 027c 4FF0FF30 		mov	r0, #-1
 260:Core/Src/minmea.c **** 
 1020              		.loc 1 260 29 view .LVU308
 1021 0280 0546     		mov	r5, r0
 1022              	.LVL122:
 260:Core/Src/minmea.c **** 
 1023              		.loc 1 260 21 view .LVU309
 1024 0282 8146     		mov	r9, r0
ARM GAS  /var/folders/_g/2c7lhzm90n5_zxwlm2w6npkr0000gn/T//ccM86DqO.s 			page 31


 1025              	.LVL123:
 1026              	.L83:
 263:Core/Src/minmea.c ****                     // Always six digits.
 264:Core/Src/minmea.c ****                     for (int f=0; f<6; f++)
 265:Core/Src/minmea.c ****                         if (!isdigit((unsigned char) field[f]))
 266:Core/Src/minmea.c ****                             goto parse_error;
 267:Core/Src/minmea.c **** 
 268:Core/Src/minmea.c ****                     char dArr[] = {field[0], field[1], '\0'};
 269:Core/Src/minmea.c ****                     char mArr[] = {field[2], field[3], '\0'};
 270:Core/Src/minmea.c ****                     char yArr[] = {field[4], field[5], '\0'};
 271:Core/Src/minmea.c ****                     d = strtol(dArr, NULL, 10);
 272:Core/Src/minmea.c ****                     m = strtol(mArr, NULL, 10);
 273:Core/Src/minmea.c ****                     y = strtol(yArr, NULL, 10);
 274:Core/Src/minmea.c ****                 }
 275:Core/Src/minmea.c **** 
 276:Core/Src/minmea.c ****                 date->day = d;
 1027              		.loc 1 276 17 is_stmt 1 view .LVU310
 1028              		.loc 1 276 27 is_stmt 0 view .LVU311
 1029 0284 C8F80090 		str	r9, [r8]
 277:Core/Src/minmea.c ****                 date->month = m;
 1030              		.loc 1 277 17 is_stmt 1 view .LVU312
 1031              		.loc 1 277 29 is_stmt 0 view .LVU313
 1032 0288 C8F80450 		str	r5, [r8, #4]
 278:Core/Src/minmea.c ****                 date->year = y;
 1033              		.loc 1 278 17 is_stmt 1 view .LVU314
 1034              		.loc 1 278 28 is_stmt 0 view .LVU315
 1035 028c C8F80800 		str	r0, [r8, #8]
 1036              	.LBE23:
 279:Core/Src/minmea.c ****             } break;
 1037              		.loc 1 279 15 is_stmt 1 view .LVU316
 1038 0290 BFE0     		b	.L95
 1039              	.LVL124:
 1040              	.L141:
 1041              	.LBB28:
 1042              	.LBB24:
 1043              	.LBB25:
 266:Core/Src/minmea.c **** 
 1044              		.loc 1 266 29 view .LVU317
 1045              	.LBE25:
 1046              	.LBE24:
 1047              	.LBE28:
 1048              	.LBE42:
  89:Core/Src/minmea.c ****     bool optional = false;
 1049              		.loc 1 89 10 is_stmt 0 view .LVU318
 1050 0292 0020     		movs	r0, #0
 1051 0294 40E1     		b	.L42
 1052              	.LVL125:
 1053              	.L123:
 1054              	.LBB43:
 1055              	.LBB29:
 1056              	.LBB27:
 1057              	.LBB26:
 264:Core/Src/minmea.c ****                         if (!isdigit((unsigned char) field[f]))
 1058              		.loc 1 264 30 view .LVU319
 1059 0296 0023     		movs	r3, #0
 1060              	.L84:
 1061              	.LVL126:
ARM GAS  /var/folders/_g/2c7lhzm90n5_zxwlm2w6npkr0000gn/T//ccM86DqO.s 			page 32


 264:Core/Src/minmea.c ****                         if (!isdigit((unsigned char) field[f]))
 1062              		.loc 1 264 36 is_stmt 1 discriminator 1 view .LVU320
 1063 0298 052B     		cmp	r3, #5
 1064 029a 07DC     		bgt	.L140
 265:Core/Src/minmea.c ****                             goto parse_error;
 1065              		.loc 1 265 25 view .LVU321
 265:Core/Src/minmea.c ****                             goto parse_error;
 1066              		.loc 1 265 30 is_stmt 0 view .LVU322
 1067 029c EA5C     		ldrb	r2, [r5, r3]	@ zero_extendqisi2
 1068 029e 5849     		ldr	r1, .L147
 1069 02a0 8A5C     		ldrb	r2, [r1, r2]	@ zero_extendqisi2
 265:Core/Src/minmea.c ****                             goto parse_error;
 1070              		.loc 1 265 28 view .LVU323
 1071 02a2 12F0040F 		tst	r2, #4
 1072 02a6 F4D0     		beq	.L141
 264:Core/Src/minmea.c ****                         if (!isdigit((unsigned char) field[f]))
 1073              		.loc 1 264 41 is_stmt 1 discriminator 2 view .LVU324
 1074 02a8 0133     		adds	r3, r3, #1
 1075              	.LVL127:
 264:Core/Src/minmea.c ****                         if (!isdigit((unsigned char) field[f]))
 1076              		.loc 1 264 41 is_stmt 0 discriminator 2 view .LVU325
 1077 02aa F5E7     		b	.L84
 1078              	.L140:
 264:Core/Src/minmea.c ****                         if (!isdigit((unsigned char) field[f]))
 1079              		.loc 1 264 41 discriminator 2 view .LVU326
 1080              	.LBE26:
 268:Core/Src/minmea.c ****                     char mArr[] = {field[2], field[3], '\0'};
 1081              		.loc 1 268 21 is_stmt 1 view .LVU327
 268:Core/Src/minmea.c ****                     char mArr[] = {field[2], field[3], '\0'};
 1082              		.loc 1 268 26 is_stmt 0 view .LVU328
 1083 02ac 8DF80090 		strb	r9, [sp]
 268:Core/Src/minmea.c ****                     char mArr[] = {field[2], field[3], '\0'};
 1084              		.loc 1 268 51 view .LVU329
 1085 02b0 6B78     		ldrb	r3, [r5, #1]	@ zero_extendqisi2
 1086              	.LVL128:
 268:Core/Src/minmea.c ****                     char mArr[] = {field[2], field[3], '\0'};
 1087              		.loc 1 268 26 view .LVU330
 1088 02b2 8DF80130 		strb	r3, [sp, #1]
 1089 02b6 4FF0000A 		mov	r10, #0
 1090 02ba 8DF802A0 		strb	r10, [sp, #2]
 269:Core/Src/minmea.c ****                     char yArr[] = {field[4], field[5], '\0'};
 1091              		.loc 1 269 21 is_stmt 1 view .LVU331
 269:Core/Src/minmea.c ****                     char yArr[] = {field[4], field[5], '\0'};
 1092              		.loc 1 269 41 is_stmt 0 view .LVU332
 1093 02be AB78     		ldrb	r3, [r5, #2]	@ zero_extendqisi2
 269:Core/Src/minmea.c ****                     char yArr[] = {field[4], field[5], '\0'};
 1094              		.loc 1 269 26 view .LVU333
 1095 02c0 8DF80430 		strb	r3, [sp, #4]
 269:Core/Src/minmea.c ****                     char yArr[] = {field[4], field[5], '\0'};
 1096              		.loc 1 269 51 view .LVU334
 1097 02c4 EB78     		ldrb	r3, [r5, #3]	@ zero_extendqisi2
 269:Core/Src/minmea.c ****                     char yArr[] = {field[4], field[5], '\0'};
 1098              		.loc 1 269 26 view .LVU335
 1099 02c6 8DF80530 		strb	r3, [sp, #5]
 1100 02ca 8DF806A0 		strb	r10, [sp, #6]
 270:Core/Src/minmea.c ****                     d = strtol(dArr, NULL, 10);
 1101              		.loc 1 270 21 is_stmt 1 view .LVU336
ARM GAS  /var/folders/_g/2c7lhzm90n5_zxwlm2w6npkr0000gn/T//ccM86DqO.s 			page 33


 270:Core/Src/minmea.c ****                     d = strtol(dArr, NULL, 10);
 1102              		.loc 1 270 41 is_stmt 0 view .LVU337
 1103 02ce 2B79     		ldrb	r3, [r5, #4]	@ zero_extendqisi2
 270:Core/Src/minmea.c ****                     d = strtol(dArr, NULL, 10);
 1104              		.loc 1 270 26 view .LVU338
 1105 02d0 8DF80830 		strb	r3, [sp, #8]
 270:Core/Src/minmea.c ****                     d = strtol(dArr, NULL, 10);
 1106              		.loc 1 270 51 view .LVU339
 1107 02d4 6B79     		ldrb	r3, [r5, #5]	@ zero_extendqisi2
 270:Core/Src/minmea.c ****                     d = strtol(dArr, NULL, 10);
 1108              		.loc 1 270 26 view .LVU340
 1109 02d6 8DF80930 		strb	r3, [sp, #9]
 1110 02da 8DF80AA0 		strb	r10, [sp, #10]
 271:Core/Src/minmea.c ****                     m = strtol(mArr, NULL, 10);
 1111              		.loc 1 271 21 is_stmt 1 view .LVU341
 271:Core/Src/minmea.c ****                     m = strtol(mArr, NULL, 10);
 1112              		.loc 1 271 25 is_stmt 0 view .LVU342
 1113 02de 0A22     		movs	r2, #10
 1114 02e0 5146     		mov	r1, r10
 1115 02e2 6846     		mov	r0, sp
 1116 02e4 FFF7FEFF 		bl	strtol
 1117              	.LVL129:
 1118 02e8 8146     		mov	r9, r0
 1119              	.LVL130:
 272:Core/Src/minmea.c ****                     y = strtol(yArr, NULL, 10);
 1120              		.loc 1 272 21 is_stmt 1 view .LVU343
 272:Core/Src/minmea.c ****                     y = strtol(yArr, NULL, 10);
 1121              		.loc 1 272 25 is_stmt 0 view .LVU344
 1122 02ea 0A22     		movs	r2, #10
 1123 02ec 5146     		mov	r1, r10
 1124 02ee 01A8     		add	r0, sp, #4
 1125              	.LVL131:
 272:Core/Src/minmea.c ****                     y = strtol(yArr, NULL, 10);
 1126              		.loc 1 272 25 view .LVU345
 1127 02f0 FFF7FEFF 		bl	strtol
 1128              	.LVL132:
 1129 02f4 0546     		mov	r5, r0
 1130              	.LVL133:
 273:Core/Src/minmea.c ****                 }
 1131              		.loc 1 273 21 is_stmt 1 view .LVU346
 273:Core/Src/minmea.c ****                 }
 1132              		.loc 1 273 25 is_stmt 0 view .LVU347
 1133 02f6 0A22     		movs	r2, #10
 1134 02f8 5146     		mov	r1, r10
 1135 02fa 02A8     		add	r0, sp, #8
 1136              	.LVL134:
 273:Core/Src/minmea.c ****                 }
 1137              		.loc 1 273 25 view .LVU348
 1138 02fc FFF7FEFF 		bl	strtol
 1139              	.LVL135:
 273:Core/Src/minmea.c ****                 }
 1140              		.loc 1 273 25 view .LVU349
 1141 0300 C0E7     		b	.L83
 1142              	.LVL136:
 1143              	.L122:
 273:Core/Src/minmea.c ****                 }
 1144              		.loc 1 273 25 view .LVU350
ARM GAS  /var/folders/_g/2c7lhzm90n5_zxwlm2w6npkr0000gn/T//ccM86DqO.s 			page 34


 1145              	.LBE27:
 260:Core/Src/minmea.c **** 
 1146              		.loc 1 260 37 view .LVU351
 1147 0302 4FF0FF30 		mov	r0, #-1
 260:Core/Src/minmea.c **** 
 1148              		.loc 1 260 29 view .LVU352
 1149 0306 0546     		mov	r5, r0
 1150              	.LVL137:
 260:Core/Src/minmea.c **** 
 1151              		.loc 1 260 21 view .LVU353
 1152 0308 8146     		mov	r9, r0
 1153 030a BBE7     		b	.L83
 1154              	.LVL138:
 1155              	.L55:
 260:Core/Src/minmea.c **** 
 1156              		.loc 1 260 21 view .LVU354
 1157              	.LBE29:
 1158              	.LBB30:
 280:Core/Src/minmea.c **** 
 281:Core/Src/minmea.c ****             case 'T': { // Time (int, int, int, int), -1 if empty.
 282:Core/Src/minmea.c ****                 struct minmea_time *time_ = va_arg(ap, struct minmea_time *);
 1159              		.loc 1 282 17 is_stmt 1 view .LVU355
 1160              		.loc 1 282 37 is_stmt 0 view .LVU356
 1161 030c 039B     		ldr	r3, [sp, #12]
 1162              	.LVL139:
 1163              		.loc 1 282 37 view .LVU357
 1164 030e 1A1D     		adds	r2, r3, #4
 1165 0310 0392     		str	r2, [sp, #12]
 1166              	.LVL140:
 1167              		.loc 1 282 37 view .LVU358
 1168 0312 D3F80080 		ldr	r8, [r3]
 283:Core/Src/minmea.c **** 
 284:Core/Src/minmea.c ****                 int h = -1, i = -1, s = -1, u = -1;
 1169              		.loc 1 284 17 is_stmt 1 view .LVU359
 1170              	.LVL141:
 285:Core/Src/minmea.c **** 
 286:Core/Src/minmea.c ****                 if (field && minmea_isfield(*field)) {
 1171              		.loc 1 286 17 view .LVU360
 1172              		.loc 1 286 20 is_stmt 0 view .LVU361
 1173 0316 002D     		cmp	r5, #0
 1174 0318 6CD0     		beq	.L124
 1175              		.loc 1 286 30 discriminator 1 view .LVU362
 1176 031a 95F80090 		ldrb	r9, [r5]	@ zero_extendqisi2
 1177 031e 4846     		mov	r0, r9
 1178 0320 FFF7FEFF 		bl	minmea_isfield
 1179              	.LVL142:
 1180              		.loc 1 286 27 discriminator 1 view .LVU363
 1181 0324 78B9     		cbnz	r0, .L125
 284:Core/Src/minmea.c **** 
 1182              		.loc 1 284 45 view .LVU364
 1183 0326 4FF0FF33 		mov	r3, #-1
 284:Core/Src/minmea.c **** 
 1184              		.loc 1 284 37 view .LVU365
 1185 032a 1846     		mov	r0, r3
 284:Core/Src/minmea.c **** 
 1186              		.loc 1 284 29 view .LVU366
 1187 032c 9946     		mov	r9, r3
ARM GAS  /var/folders/_g/2c7lhzm90n5_zxwlm2w6npkr0000gn/T//ccM86DqO.s 			page 35


 284:Core/Src/minmea.c **** 
 1188              		.loc 1 284 21 view .LVU367
 1189 032e 9A46     		mov	r10, r3
 1190              	.LVL143:
 1191              	.L87:
 287:Core/Src/minmea.c ****                     // Minimum required: integer time.
 288:Core/Src/minmea.c ****                     for (int f=0; f<6; f++)
 289:Core/Src/minmea.c ****                         if (!isdigit((unsigned char) field[f]))
 290:Core/Src/minmea.c ****                             goto parse_error;
 291:Core/Src/minmea.c **** 
 292:Core/Src/minmea.c ****                     char hArr[] = {field[0], field[1], '\0'};
 293:Core/Src/minmea.c ****                     char iArr[] = {field[2], field[3], '\0'};
 294:Core/Src/minmea.c ****                     char sArr[] = {field[4], field[5], '\0'};
 295:Core/Src/minmea.c ****                     h = strtol(hArr, NULL, 10);
 296:Core/Src/minmea.c ****                     i = strtol(iArr, NULL, 10);
 297:Core/Src/minmea.c ****                     s = strtol(sArr, NULL, 10);
 298:Core/Src/minmea.c ****                     field += 6;
 299:Core/Src/minmea.c **** 
 300:Core/Src/minmea.c ****                     // Extra: fractional time. Saved as microseconds.
 301:Core/Src/minmea.c ****                     if (*field++ == '.') {
 302:Core/Src/minmea.c ****                         uint32_t value = 0;
 303:Core/Src/minmea.c ****                         uint32_t scale = 1000000LU;
 304:Core/Src/minmea.c ****                         while (isdigit((unsigned char) *field) && scale > 1) {
 305:Core/Src/minmea.c ****                             value = (value * 10) + (*field++ - '0');
 306:Core/Src/minmea.c ****                             scale /= 10;
 307:Core/Src/minmea.c ****                         }
 308:Core/Src/minmea.c ****                         u = value * scale;
 309:Core/Src/minmea.c ****                     } else {
 310:Core/Src/minmea.c ****                         u = 0;
 311:Core/Src/minmea.c ****                     }
 312:Core/Src/minmea.c ****                 }
 313:Core/Src/minmea.c **** 
 314:Core/Src/minmea.c ****                 time_->hours = h;
 1192              		.loc 1 314 17 is_stmt 1 view .LVU368
 1193              		.loc 1 314 30 is_stmt 0 view .LVU369
 1194 0330 C8F800A0 		str	r10, [r8]
 315:Core/Src/minmea.c ****                 time_->minutes = i;
 1195              		.loc 1 315 17 is_stmt 1 view .LVU370
 1196              		.loc 1 315 32 is_stmt 0 view .LVU371
 1197 0334 C8F80490 		str	r9, [r8, #4]
 316:Core/Src/minmea.c ****                 time_->seconds = s;
 1198              		.loc 1 316 17 is_stmt 1 view .LVU372
 1199              		.loc 1 316 32 is_stmt 0 view .LVU373
 1200 0338 C8F80800 		str	r0, [r8, #8]
 317:Core/Src/minmea.c ****                 time_->microseconds = u;
 1201              		.loc 1 317 17 is_stmt 1 view .LVU374
 1202              		.loc 1 317 37 is_stmt 0 view .LVU375
 1203 033c C8F80C30 		str	r3, [r8, #12]
 1204              	.LBE30:
 318:Core/Src/minmea.c ****             } break;
 1205              		.loc 1 318 15 is_stmt 1 view .LVU376
 1206 0340 67E0     		b	.L95
 1207              	.LVL144:
 1208              	.L143:
 1209              	.LBB37:
 1210              	.LBB31:
 1211              	.LBB32:
ARM GAS  /var/folders/_g/2c7lhzm90n5_zxwlm2w6npkr0000gn/T//ccM86DqO.s 			page 36


 290:Core/Src/minmea.c **** 
 1212              		.loc 1 290 29 view .LVU377
 1213              	.LBE32:
 1214              	.LBE31:
 1215              	.LBE37:
 1216              	.LBE43:
  89:Core/Src/minmea.c ****     bool optional = false;
 1217              		.loc 1 89 10 is_stmt 0 view .LVU378
 1218 0342 0020     		movs	r0, #0
 1219 0344 E8E0     		b	.L42
 1220              	.LVL145:
 1221              	.L125:
 1222              	.LBB44:
 1223              	.LBB38:
 1224              	.LBB36:
 1225              	.LBB33:
 288:Core/Src/minmea.c ****                         if (!isdigit((unsigned char) field[f]))
 1226              		.loc 1 288 30 view .LVU379
 1227 0346 0023     		movs	r3, #0
 1228              	.L88:
 1229              	.LVL146:
 288:Core/Src/minmea.c ****                         if (!isdigit((unsigned char) field[f]))
 1230              		.loc 1 288 36 is_stmt 1 discriminator 1 view .LVU380
 1231 0348 052B     		cmp	r3, #5
 1232 034a 07DC     		bgt	.L142
 289:Core/Src/minmea.c ****                             goto parse_error;
 1233              		.loc 1 289 25 view .LVU381
 289:Core/Src/minmea.c ****                             goto parse_error;
 1234              		.loc 1 289 30 is_stmt 0 view .LVU382
 1235 034c EA5C     		ldrb	r2, [r5, r3]	@ zero_extendqisi2
 1236 034e 2C49     		ldr	r1, .L147
 1237 0350 8A5C     		ldrb	r2, [r1, r2]	@ zero_extendqisi2
 289:Core/Src/minmea.c ****                             goto parse_error;
 1238              		.loc 1 289 28 view .LVU383
 1239 0352 12F0040F 		tst	r2, #4
 1240 0356 F4D0     		beq	.L143
 288:Core/Src/minmea.c ****                         if (!isdigit((unsigned char) field[f]))
 1241              		.loc 1 288 41 is_stmt 1 discriminator 2 view .LVU384
 1242 0358 0133     		adds	r3, r3, #1
 1243              	.LVL147:
 288:Core/Src/minmea.c ****                         if (!isdigit((unsigned char) field[f]))
 1244              		.loc 1 288 41 is_stmt 0 discriminator 2 view .LVU385
 1245 035a F5E7     		b	.L88
 1246              	.L142:
 288:Core/Src/minmea.c ****                         if (!isdigit((unsigned char) field[f]))
 1247              		.loc 1 288 41 discriminator 2 view .LVU386
 1248              	.LBE33:
 292:Core/Src/minmea.c ****                     char iArr[] = {field[2], field[3], '\0'};
 1249              		.loc 1 292 21 is_stmt 1 view .LVU387
 292:Core/Src/minmea.c ****                     char iArr[] = {field[2], field[3], '\0'};
 1250              		.loc 1 292 26 is_stmt 0 view .LVU388
 1251 035c 8DF80090 		strb	r9, [sp]
 292:Core/Src/minmea.c ****                     char iArr[] = {field[2], field[3], '\0'};
 1252              		.loc 1 292 51 view .LVU389
 1253 0360 6B78     		ldrb	r3, [r5, #1]	@ zero_extendqisi2
 1254              	.LVL148:
 292:Core/Src/minmea.c ****                     char iArr[] = {field[2], field[3], '\0'};
ARM GAS  /var/folders/_g/2c7lhzm90n5_zxwlm2w6npkr0000gn/T//ccM86DqO.s 			page 37


 1255              		.loc 1 292 26 view .LVU390
 1256 0362 8DF80130 		strb	r3, [sp, #1]
 1257 0366 4FF0000B 		mov	fp, #0
 1258 036a 8DF802B0 		strb	fp, [sp, #2]
 293:Core/Src/minmea.c ****                     char sArr[] = {field[4], field[5], '\0'};
 1259              		.loc 1 293 21 is_stmt 1 view .LVU391
 293:Core/Src/minmea.c ****                     char sArr[] = {field[4], field[5], '\0'};
 1260              		.loc 1 293 41 is_stmt 0 view .LVU392
 1261 036e AB78     		ldrb	r3, [r5, #2]	@ zero_extendqisi2
 293:Core/Src/minmea.c ****                     char sArr[] = {field[4], field[5], '\0'};
 1262              		.loc 1 293 26 view .LVU393
 1263 0370 8DF80430 		strb	r3, [sp, #4]
 293:Core/Src/minmea.c ****                     char sArr[] = {field[4], field[5], '\0'};
 1264              		.loc 1 293 51 view .LVU394
 1265 0374 EB78     		ldrb	r3, [r5, #3]	@ zero_extendqisi2
 293:Core/Src/minmea.c ****                     char sArr[] = {field[4], field[5], '\0'};
 1266              		.loc 1 293 26 view .LVU395
 1267 0376 8DF80530 		strb	r3, [sp, #5]
 1268 037a 8DF806B0 		strb	fp, [sp, #6]
 294:Core/Src/minmea.c ****                     h = strtol(hArr, NULL, 10);
 1269              		.loc 1 294 21 is_stmt 1 view .LVU396
 294:Core/Src/minmea.c ****                     h = strtol(hArr, NULL, 10);
 1270              		.loc 1 294 41 is_stmt 0 view .LVU397
 1271 037e 2B79     		ldrb	r3, [r5, #4]	@ zero_extendqisi2
 294:Core/Src/minmea.c ****                     h = strtol(hArr, NULL, 10);
 1272              		.loc 1 294 26 view .LVU398
 1273 0380 8DF80830 		strb	r3, [sp, #8]
 294:Core/Src/minmea.c ****                     h = strtol(hArr, NULL, 10);
 1274              		.loc 1 294 51 view .LVU399
 1275 0384 6B79     		ldrb	r3, [r5, #5]	@ zero_extendqisi2
 294:Core/Src/minmea.c ****                     h = strtol(hArr, NULL, 10);
 1276              		.loc 1 294 26 view .LVU400
 1277 0386 8DF80930 		strb	r3, [sp, #9]
 1278 038a 8DF80AB0 		strb	fp, [sp, #10]
 295:Core/Src/minmea.c ****                     i = strtol(iArr, NULL, 10);
 1279              		.loc 1 295 21 is_stmt 1 view .LVU401
 295:Core/Src/minmea.c ****                     i = strtol(iArr, NULL, 10);
 1280              		.loc 1 295 25 is_stmt 0 view .LVU402
 1281 038e 0A22     		movs	r2, #10
 1282 0390 5946     		mov	r1, fp
 1283 0392 6846     		mov	r0, sp
 1284 0394 FFF7FEFF 		bl	strtol
 1285              	.LVL149:
 1286 0398 8246     		mov	r10, r0
 1287              	.LVL150:
 296:Core/Src/minmea.c ****                     s = strtol(sArr, NULL, 10);
 1288              		.loc 1 296 21 is_stmt 1 view .LVU403
 296:Core/Src/minmea.c ****                     s = strtol(sArr, NULL, 10);
 1289              		.loc 1 296 25 is_stmt 0 view .LVU404
 1290 039a 0A22     		movs	r2, #10
 1291 039c 5946     		mov	r1, fp
 1292 039e 01A8     		add	r0, sp, #4
 1293              	.LVL151:
 296:Core/Src/minmea.c ****                     s = strtol(sArr, NULL, 10);
 1294              		.loc 1 296 25 view .LVU405
 1295 03a0 FFF7FEFF 		bl	strtol
 1296              	.LVL152:
ARM GAS  /var/folders/_g/2c7lhzm90n5_zxwlm2w6npkr0000gn/T//ccM86DqO.s 			page 38


 1297 03a4 8146     		mov	r9, r0
 1298              	.LVL153:
 297:Core/Src/minmea.c ****                     field += 6;
 1299              		.loc 1 297 21 is_stmt 1 view .LVU406
 297:Core/Src/minmea.c ****                     field += 6;
 1300              		.loc 1 297 25 is_stmt 0 view .LVU407
 1301 03a6 0A22     		movs	r2, #10
 1302 03a8 5946     		mov	r1, fp
 1303 03aa 02A8     		add	r0, sp, #8
 1304              	.LVL154:
 297:Core/Src/minmea.c ****                     field += 6;
 1305              		.loc 1 297 25 view .LVU408
 1306 03ac FFF7FEFF 		bl	strtol
 1307              	.LVL155:
 298:Core/Src/minmea.c **** 
 1308              		.loc 1 298 21 is_stmt 1 view .LVU409
 301:Core/Src/minmea.c ****                         uint32_t value = 0;
 1309              		.loc 1 301 21 view .LVU410
 301:Core/Src/minmea.c ****                         uint32_t value = 0;
 1310              		.loc 1 301 31 is_stmt 0 view .LVU411
 1311 03b0 05F1070C 		add	ip, r5, #7
 1312              	.LVL156:
 301:Core/Src/minmea.c ****                         uint32_t value = 0;
 1313              		.loc 1 301 25 view .LVU412
 1314 03b4 AB79     		ldrb	r3, [r5, #6]	@ zero_extendqisi2
 301:Core/Src/minmea.c ****                         uint32_t value = 0;
 1315              		.loc 1 301 24 view .LVU413
 1316 03b6 2E2B     		cmp	r3, #46
 1317 03b8 19D0     		beq	.L126
 310:Core/Src/minmea.c ****                     }
 1318              		.loc 1 310 27 view .LVU414
 1319 03ba 5B46     		mov	r3, fp
 1320 03bc B8E7     		b	.L87
 1321              	.LVL157:
 1322              	.L94:
 1323              	.LBB34:
 305:Core/Src/minmea.c ****                             scale /= 10;
 1324              		.loc 1 305 29 is_stmt 1 view .LVU415
 305:Core/Src/minmea.c ****                             scale /= 10;
 1325              		.loc 1 305 44 is_stmt 0 view .LVU416
 1326 03be 03EB8303 		add	r3, r3, r3, lsl #2
 1327              	.LVL158:
 305:Core/Src/minmea.c ****                             scale /= 10;
 1328              		.loc 1 305 59 view .LVU417
 1329 03c2 0CF1010C 		add	ip, ip, #1
 1330              	.LVL159:
 305:Core/Src/minmea.c ****                             scale /= 10;
 1331              		.loc 1 305 50 view .LVU418
 1332 03c6 02EB4302 		add	r2, r2, r3, lsl #1
 305:Core/Src/minmea.c ****                             scale /= 10;
 1333              		.loc 1 305 35 view .LVU419
 1334 03ca A2F13003 		sub	r3, r2, #48
 1335              	.LVL160:
 306:Core/Src/minmea.c ****                         }
 1336              		.loc 1 306 29 is_stmt 1 view .LVU420
 306:Core/Src/minmea.c ****                         }
 1337              		.loc 1 306 35 is_stmt 0 view .LVU421
ARM GAS  /var/folders/_g/2c7lhzm90n5_zxwlm2w6npkr0000gn/T//ccM86DqO.s 			page 39


 1338 03ce 0E4A     		ldr	r2, .L147+8
 1339 03d0 A2FB0112 		umull	r1, r2, r2, r1
 1340              	.LVL161:
 306:Core/Src/minmea.c ****                         }
 1341              		.loc 1 306 35 view .LVU422
 1342 03d4 D108     		lsrs	r1, r2, #3
 1343              	.LVL162:
 1344              	.L91:
 304:Core/Src/minmea.c ****                             value = (value * 10) + (*field++ - '0');
 1345              		.loc 1 304 64 is_stmt 1 view .LVU423
 304:Core/Src/minmea.c ****                             value = (value * 10) + (*field++ - '0');
 1346              		.loc 1 304 32 is_stmt 0 view .LVU424
 1347 03d6 9CF80020 		ldrb	r2, [ip]	@ zero_extendqisi2
 1348 03da 094D     		ldr	r5, .L147
 1349 03dc AD5C     		ldrb	r5, [r5, r2]	@ zero_extendqisi2
 304:Core/Src/minmea.c ****                             value = (value * 10) + (*field++ - '0');
 1350              		.loc 1 304 64 view .LVU425
 1351 03de 15F0040F 		tst	r5, #4
 1352 03e2 01D0     		beq	.L93
 304:Core/Src/minmea.c ****                             value = (value * 10) + (*field++ - '0');
 1353              		.loc 1 304 64 discriminator 1 view .LVU426
 1354 03e4 0129     		cmp	r1, #1
 1355 03e6 EAD8     		bhi	.L94
 1356              	.L93:
 308:Core/Src/minmea.c ****                     } else {
 1357              		.loc 1 308 25 is_stmt 1 view .LVU427
 308:Core/Src/minmea.c ****                     } else {
 1358              		.loc 1 308 35 is_stmt 0 view .LVU428
 1359 03e8 01FB03F3 		mul	r3, r1, r3
 1360              	.LVL163:
 308:Core/Src/minmea.c ****                     } else {
 1361              		.loc 1 308 35 view .LVU429
 1362              	.LBE34:
 1363 03ec A0E7     		b	.L87
 1364              	.LVL164:
 1365              	.L126:
 1366              	.LBB35:
 303:Core/Src/minmea.c ****                         while (isdigit((unsigned char) *field) && scale > 1) {
 1367              		.loc 1 303 34 view .LVU430
 1368 03ee 0749     		ldr	r1, .L147+12
 302:Core/Src/minmea.c ****                         uint32_t scale = 1000000LU;
 1369              		.loc 1 302 34 view .LVU431
 1370 03f0 0023     		movs	r3, #0
 1371 03f2 F0E7     		b	.L91
 1372              	.LVL165:
 1373              	.L124:
 302:Core/Src/minmea.c ****                         uint32_t scale = 1000000LU;
 1374              		.loc 1 302 34 view .LVU432
 1375              	.LBE35:
 1376              	.LBE36:
 284:Core/Src/minmea.c **** 
 1377              		.loc 1 284 45 view .LVU433
 1378 03f4 4FF0FF33 		mov	r3, #-1
 284:Core/Src/minmea.c **** 
 1379              		.loc 1 284 37 view .LVU434
 1380 03f8 1846     		mov	r0, r3
 284:Core/Src/minmea.c **** 
ARM GAS  /var/folders/_g/2c7lhzm90n5_zxwlm2w6npkr0000gn/T//ccM86DqO.s 			page 40


 1381              		.loc 1 284 29 view .LVU435
 1382 03fa 9946     		mov	r9, r3
 284:Core/Src/minmea.c **** 
 1383              		.loc 1 284 21 view .LVU436
 1384 03fc 9A46     		mov	r10, r3
 1385 03fe 97E7     		b	.L87
 1386              	.L148:
 1387              		.align	2
 1388              	.L147:
 1389 0400 01000000 		.word	_ctype_+1
 1390 0404 67666666 		.word	1717986919
 1391 0408 CDCCCCCC 		.word	-858993459
 1392 040c 40420F00 		.word	1000000
 1393              	.LVL166:
 1394              	.L96:
 284:Core/Src/minmea.c **** 
 1395              		.loc 1 284 21 view .LVU437
 1396              	.LBE38:
 319:Core/Src/minmea.c **** 
 320:Core/Src/minmea.c ****             case '_': { // Ignore the field.
 321:Core/Src/minmea.c ****             } break;
 322:Core/Src/minmea.c **** 
 323:Core/Src/minmea.c ****             default: { // Unknown.
 324:Core/Src/minmea.c ****                 goto parse_error;
 325:Core/Src/minmea.c ****             }
 326:Core/Src/minmea.c ****         }
 327:Core/Src/minmea.c **** 
 328:Core/Src/minmea.c ****         next_field();
 1397              		.loc 1 328 9 is_stmt 1 discriminator 2 view .LVU438
 1398 0410 0134     		adds	r4, r4, #1
 1399              	.LVL167:
 1400              	.L95:
 1401              		.loc 1 328 9 discriminator 1 view .LVU439
 1402 0412 2578     		ldrb	r5, [r4]	@ zero_extendqisi2
 1403 0414 2846     		mov	r0, r5
 1404 0416 FFF7FEFF 		bl	minmea_isfield
 1405              	.LVL168:
 1406 041a 0028     		cmp	r0, #0
 1407 041c F8D1     		bne	.L96
 1408              		.loc 1 328 9 discriminator 3 view .LVU440
 1409 041e 2C2D     		cmp	r5, #44
 1410 0420 72D0     		beq	.L144
 1411              		.loc 1 328 9 is_stmt 0 view .LVU441
 1412 0422 0025     		movs	r5, #0
 1413              	.LVL169:
 1414              	.L43:
 1415              		.loc 1 328 9 is_stmt 1 discriminator 7 view .LVU442
 1416              	.LBE44:
 113:Core/Src/minmea.c ****         char type = *format++;
 1417              		.loc 1 113 12 discriminator 7 view .LVU443
 1418 0424 3378     		ldrb	r3, [r6]	@ zero_extendqisi2
 1419 0426 002B     		cmp	r3, #0
 1420 0428 73D0     		beq	.L145
 1421              	.LBB45:
 114:Core/Src/minmea.c **** 
 1422              		.loc 1 114 9 view .LVU444
 114:Core/Src/minmea.c **** 
ARM GAS  /var/folders/_g/2c7lhzm90n5_zxwlm2w6npkr0000gn/T//ccM86DqO.s 			page 41


 1423              		.loc 1 114 28 is_stmt 0 view .LVU445
 1424 042a 0136     		adds	r6, r6, #1
 1425              	.LVL170:
 116:Core/Src/minmea.c ****             // All further fields are optional.
 1426              		.loc 1 116 9 is_stmt 1 view .LVU446
 116:Core/Src/minmea.c ****             // All further fields are optional.
 1427              		.loc 1 116 12 is_stmt 0 view .LVU447
 1428 042c 3B2B     		cmp	r3, #59
 1429 042e 6ED0     		beq	.L99
 122:Core/Src/minmea.c ****             // Field requested but we ran out if input. Bail out.
 1430              		.loc 1 122 9 is_stmt 1 view .LVU448
 122:Core/Src/minmea.c ****             // Field requested but we ran out if input. Bail out.
 1431              		.loc 1 122 12 is_stmt 0 view .LVU449
 1432 0430 002D     		cmp	r5, #0
 1433 0432 3FF4F3AD 		beq	.L146
 1434              	.L45:
 127:Core/Src/minmea.c ****             case 'c': { // Single character field (char).
 1435              		.loc 1 127 9 is_stmt 1 view .LVU450
 1436 0436 443B     		subs	r3, r3, #68
 1437              	.LVL171:
 127:Core/Src/minmea.c ****             case 'c': { // Single character field (char).
 1438              		.loc 1 127 9 is_stmt 0 view .LVU451
 1439 0438 302B     		cmp	r3, #48
 1440 043a 6CD8     		bhi	.L101
 1441 043c 01A2     		adr	r2, .L48
 1442 043e 52F823F0 		ldr	pc, [r2, r3, lsl #2]
 1443 0442 00BF     		.p2align 2
 1444              	.L48:
 1445 0444 63020000 		.word	.L56+1
 1446 0448 17050000 		.word	.L101+1
 1447 044c 17050000 		.word	.L101+1
 1448 0450 17050000 		.word	.L101+1
 1449 0454 17050000 		.word	.L101+1
 1450 0458 17050000 		.word	.L101+1
 1451 045c 17050000 		.word	.L101+1
 1452 0460 17050000 		.word	.L101+1
 1453 0464 17050000 		.word	.L101+1
 1454 0468 17050000 		.word	.L101+1
 1455 046c 17050000 		.word	.L101+1
 1456 0470 17050000 		.word	.L101+1
 1457 0474 17050000 		.word	.L101+1
 1458 0478 17050000 		.word	.L101+1
 1459 047c 17050000 		.word	.L101+1
 1460 0480 17050000 		.word	.L101+1
 1461 0484 0D030000 		.word	.L55+1
 1462 0488 17050000 		.word	.L101+1
 1463 048c 17050000 		.word	.L101+1
 1464 0490 17050000 		.word	.L101+1
 1465 0494 17050000 		.word	.L101+1
 1466 0498 17050000 		.word	.L101+1
 1467 049c 17050000 		.word	.L101+1
 1468 04a0 17050000 		.word	.L101+1
 1469 04a4 17050000 		.word	.L101+1
 1470 04a8 17050000 		.word	.L101+1
 1471 04ac 17050000 		.word	.L101+1
 1472 04b0 13040000 		.word	.L95+1
 1473 04b4 17050000 		.word	.L101+1
ARM GAS  /var/folders/_g/2c7lhzm90n5_zxwlm2w6npkr0000gn/T//ccM86DqO.s 			page 42


 1474 04b8 17050000 		.word	.L101+1
 1475 04bc 17050000 		.word	.L101+1
 1476 04c0 27000000 		.word	.L53+1
 1477 04c4 45000000 		.word	.L52+1
 1478 04c8 17050000 		.word	.L101+1
 1479 04cc 9F000000 		.word	.L51+1
 1480 04d0 17050000 		.word	.L101+1
 1481 04d4 17050000 		.word	.L101+1
 1482 04d8 C7010000 		.word	.L50+1
 1483 04dc 17050000 		.word	.L101+1
 1484 04e0 17050000 		.word	.L101+1
 1485 04e4 17050000 		.word	.L101+1
 1486 04e8 17050000 		.word	.L101+1
 1487 04ec 17050000 		.word	.L101+1
 1488 04f0 17050000 		.word	.L101+1
 1489 04f4 17050000 		.word	.L101+1
 1490 04f8 17050000 		.word	.L101+1
 1491 04fc 17050000 		.word	.L101+1
 1492 0500 F3010000 		.word	.L49+1
 1493 0504 21020000 		.word	.L47+1
 1494              	.LVL172:
 1495              		.p2align 1
 1496              	.L144:
 1497              		.loc 1 328 9 is_stmt 1 discriminator 4 view .LVU452
 1498 0508 0134     		adds	r4, r4, #1
 1499              	.LVL173:
 1500              		.loc 1 328 9 discriminator 4 view .LVU453
 1501              		.loc 1 328 9 is_stmt 0 discriminator 4 view .LVU454
 1502 050a 2546     		mov	r5, r4
 1503 050c 8AE7     		b	.L43
 1504              	.LVL174:
 1505              	.L99:
 118:Core/Src/minmea.c ****             continue;
 1506              		.loc 1 118 22 view .LVU455
 1507 050e 0127     		movs	r7, #1
 1508              	.LVL175:
 118:Core/Src/minmea.c ****             continue;
 1509              		.loc 1 118 22 view .LVU456
 1510 0510 88E7     		b	.L43
 1511              	.LVL176:
 1512              	.L145:
 118:Core/Src/minmea.c ****             continue;
 1513              		.loc 1 118 22 view .LVU457
 1514              	.LBE45:
 329:Core/Src/minmea.c ****     }
 330:Core/Src/minmea.c **** 
 331:Core/Src/minmea.c ****     result = true;
 1515              		.loc 1 331 12 view .LVU458
 1516 0512 0120     		movs	r0, #1
 1517 0514 00E0     		b	.L42
 1518              	.LVL177:
 1519              	.L101:
 1520              	.LBB46:
 127:Core/Src/minmea.c ****             case 'c': { // Single character field (char).
 1521              		.loc 1 127 9 view .LVU459
 1522 0516 0020     		movs	r0, #0
 1523              	.LVL178:
ARM GAS  /var/folders/_g/2c7lhzm90n5_zxwlm2w6npkr0000gn/T//ccM86DqO.s 			page 43


 1524              	.L42:
 127:Core/Src/minmea.c ****             case 'c': { // Single character field (char).
 1525              		.loc 1 127 9 view .LVU460
 1526              	.LBE46:
 332:Core/Src/minmea.c **** 
 333:Core/Src/minmea.c **** parse_error:
 334:Core/Src/minmea.c ****     va_end(ap);
 335:Core/Src/minmea.c ****     return result;
 336:Core/Src/minmea.c **** }
 1527              		.loc 1 336 1 view .LVU461
 1528 0518 04B0     		add	sp, sp, #16
 1529              		.cfi_remember_state
 1530              		.cfi_def_cfa_offset 48
 1531              		@ sp needed
 1532 051a BDE8F04F 		pop	{r4, r5, r6, r7, r8, r9, r10, fp, lr}
 1533              		.cfi_restore 14
 1534              		.cfi_restore 11
 1535              		.cfi_restore 10
 1536              		.cfi_restore 9
 1537              		.cfi_restore 8
 1538              		.cfi_restore 7
 1539              		.cfi_restore 6
 1540              		.cfi_restore 5
 1541              		.cfi_restore 4
 1542              		.cfi_def_cfa_offset 12
 1543 051e 03B0     		add	sp, sp, #12
 1544              		.cfi_restore 3
 1545              		.cfi_restore 2
 1546              		.cfi_restore 1
 1547              		.cfi_def_cfa_offset 0
 1548 0520 7047     		bx	lr
 1549              	.LVL179:
 1550              	.L105:
 1551              		.cfi_restore_state
 1552              	.LBB47:
 1553              	.LBB39:
 1554              		.loc 1 336 1 view .LVU462
 1555 0522 0020     		movs	r0, #0
 1556 0524 F8E7     		b	.L42
 1557              	.LVL180:
 1558              	.L112:
 1559              		.loc 1 336 1 view .LVU463
 1560              	.LBE39:
 1561              	.LBE47:
  89:Core/Src/minmea.c ****     bool optional = false;
 1562              		.loc 1 89 10 view .LVU464
 1563 0526 0020     		movs	r0, #0
 1564 0528 F6E7     		b	.L42
 1565              	.L113:
 1566 052a 0020     		movs	r0, #0
 1567 052c F4E7     		b	.L42
 1568              	.L114:
  89:Core/Src/minmea.c ****     bool optional = false;
 1569              		.loc 1 89 10 view .LVU465
 1570 052e 0020     		movs	r0, #0
 1571 0530 F2E7     		b	.L42
 1572              	.L133:
ARM GAS  /var/folders/_g/2c7lhzm90n5_zxwlm2w6npkr0000gn/T//ccM86DqO.s 			page 44


 1573 0532 0020     		movs	r0, #0
 1574 0534 F0E7     		b	.L42
 1575              	.L131:
  89:Core/Src/minmea.c ****     bool optional = false;
 1576              		.loc 1 89 10 view .LVU466
 1577 0536 0020     		movs	r0, #0
 1578 0538 EEE7     		b	.L42
 1579              	.LVL181:
 1580              	.L120:
  89:Core/Src/minmea.c ****     bool optional = false;
 1581              		.loc 1 89 10 view .LVU467
 1582 053a 0020     		movs	r0, #0
 1583 053c ECE7     		b	.L42
 1584              	.LVL182:
 1585              	.L121:
  89:Core/Src/minmea.c ****     bool optional = false;
 1586              		.loc 1 89 10 view .LVU468
 1587 053e 0020     		movs	r0, #0
 1588              	.L46:
 334:Core/Src/minmea.c ****     return result;
 1589              		.loc 1 334 5 is_stmt 1 view .LVU469
 335:Core/Src/minmea.c **** }
 1590              		.loc 1 335 5 view .LVU470
 335:Core/Src/minmea.c **** }
 1591              		.loc 1 335 12 is_stmt 0 view .LVU471
 1592 0540 EAE7     		b	.L42
 1593              		.cfi_endproc
 1594              	.LFE8:
 1596 0542 00BF     		.section	.rodata.minmea_talker_id.str1.4,"aMS",%progbits,1
 1597              		.align	2
 1598              	.LC0:
 1599 0000 7400     		.ascii	"t\000"
 1600              		.section	.text.minmea_talker_id,"ax",%progbits
 1601              		.align	1
 1602              		.global	minmea_talker_id
 1603              		.syntax unified
 1604              		.thumb
 1605              		.thumb_func
 1607              	minmea_talker_id:
 1608              	.LVL183:
 1609              	.LFB9:
 337:Core/Src/minmea.c **** 
 338:Core/Src/minmea.c **** bool minmea_talker_id(char talker[3], const char *sentence)
 339:Core/Src/minmea.c **** {
 1610              		.loc 1 339 1 is_stmt 1 view -0
 1611              		.cfi_startproc
 1612              		@ args = 0, pretend = 0, frame = 8
 1613              		@ frame_needed = 0, uses_anonymous_args = 0
 1614              		.loc 1 339 1 is_stmt 0 view .LVU473
 1615 0000 10B5     		push	{r4, lr}
 1616              		.cfi_def_cfa_offset 8
 1617              		.cfi_offset 4, -8
 1618              		.cfi_offset 14, -4
 1619 0002 82B0     		sub	sp, sp, #8
 1620              		.cfi_def_cfa_offset 16
 1621 0004 0446     		mov	r4, r0
 1622 0006 0846     		mov	r0, r1
ARM GAS  /var/folders/_g/2c7lhzm90n5_zxwlm2w6npkr0000gn/T//ccM86DqO.s 			page 45


 1623              	.LVL184:
 340:Core/Src/minmea.c ****     char type[6];
 1624              		.loc 1 340 5 is_stmt 1 view .LVU474
 341:Core/Src/minmea.c ****     if (!minmea_scan(sentence, "t", type))
 1625              		.loc 1 341 5 view .LVU475
 1626              		.loc 1 341 10 is_stmt 0 view .LVU476
 1627 0008 6A46     		mov	r2, sp
 1628 000a 0749     		ldr	r1, .L152
 1629              	.LVL185:
 1630              		.loc 1 341 10 view .LVU477
 1631 000c FFF7FEFF 		bl	minmea_scan
 1632              	.LVL186:
 1633              		.loc 1 341 8 view .LVU478
 1634 0010 38B1     		cbz	r0, .L150
 342:Core/Src/minmea.c ****         return false;
 343:Core/Src/minmea.c **** 
 344:Core/Src/minmea.c ****     talker[0] = type[0];
 1635              		.loc 1 344 5 is_stmt 1 view .LVU479
 1636              		.loc 1 344 21 is_stmt 0 view .LVU480
 1637 0012 9DF80030 		ldrb	r3, [sp]	@ zero_extendqisi2
 1638              		.loc 1 344 15 view .LVU481
 1639 0016 2370     		strb	r3, [r4]
 345:Core/Src/minmea.c ****     talker[1] = type[1];
 1640              		.loc 1 345 5 is_stmt 1 view .LVU482
 1641              		.loc 1 345 21 is_stmt 0 view .LVU483
 1642 0018 9DF80130 		ldrb	r3, [sp, #1]	@ zero_extendqisi2
 1643              		.loc 1 345 15 view .LVU484
 1644 001c 6370     		strb	r3, [r4, #1]
 346:Core/Src/minmea.c ****     talker[2] = '\0';
 1645              		.loc 1 346 5 is_stmt 1 view .LVU485
 1646              		.loc 1 346 15 is_stmt 0 view .LVU486
 1647 001e 0023     		movs	r3, #0
 1648 0020 A370     		strb	r3, [r4, #2]
 347:Core/Src/minmea.c **** 
 348:Core/Src/minmea.c ****     return true;
 1649              		.loc 1 348 5 is_stmt 1 view .LVU487
 1650              	.L150:
 349:Core/Src/minmea.c **** }
 1651              		.loc 1 349 1 is_stmt 0 view .LVU488
 1652 0022 02B0     		add	sp, sp, #8
 1653              		.cfi_def_cfa_offset 8
 1654              		@ sp needed
 1655 0024 10BD     		pop	{r4, pc}
 1656              	.LVL187:
 1657              	.L153:
 1658              		.loc 1 349 1 view .LVU489
 1659 0026 00BF     		.align	2
 1660              	.L152:
 1661 0028 00000000 		.word	.LC0
 1662              		.cfi_endproc
 1663              	.LFE9:
 1665              		.section	.rodata.minmea_sentence_id.str1.4,"aMS",%progbits,1
 1666              		.align	2
 1667              	.LC1:
 1668 0000 47425300 		.ascii	"GBS\000"
 1669              		.align	2
 1670              	.LC2:
ARM GAS  /var/folders/_g/2c7lhzm90n5_zxwlm2w6npkr0000gn/T//ccM86DqO.s 			page 46


 1671 0004 47474100 		.ascii	"GGA\000"
 1672              		.align	2
 1673              	.LC3:
 1674 0008 474C4C00 		.ascii	"GLL\000"
 1675              		.align	2
 1676              	.LC4:
 1677 000c 47534100 		.ascii	"GSA\000"
 1678              		.align	2
 1679              	.LC5:
 1680 0010 47535400 		.ascii	"GST\000"
 1681              		.align	2
 1682              	.LC6:
 1683 0014 47535600 		.ascii	"GSV\000"
 1684              		.align	2
 1685              	.LC7:
 1686 0018 524D4300 		.ascii	"RMC\000"
 1687              		.align	2
 1688              	.LC8:
 1689 001c 56544700 		.ascii	"VTG\000"
 1690              		.align	2
 1691              	.LC9:
 1692 0020 5A444100 		.ascii	"ZDA\000"
 1693              		.section	.text.minmea_sentence_id,"ax",%progbits
 1694              		.align	1
 1695              		.global	minmea_sentence_id
 1696              		.syntax unified
 1697              		.thumb
 1698              		.thumb_func
 1700              	minmea_sentence_id:
 1701              	.LVL188:
 1702              	.LFB10:
 350:Core/Src/minmea.c **** 
 351:Core/Src/minmea.c **** enum minmea_sentence_id minmea_sentence_id(const char *sentence, bool strict)
 352:Core/Src/minmea.c **** {
 1703              		.loc 1 352 1 is_stmt 1 view -0
 1704              		.cfi_startproc
 1705              		@ args = 0, pretend = 0, frame = 8
 1706              		@ frame_needed = 0, uses_anonymous_args = 0
 1707              		.loc 1 352 1 is_stmt 0 view .LVU491
 1708 0000 10B5     		push	{r4, lr}
 1709              		.cfi_def_cfa_offset 8
 1710              		.cfi_offset 4, -8
 1711              		.cfi_offset 14, -4
 1712 0002 82B0     		sub	sp, sp, #8
 1713              		.cfi_def_cfa_offset 16
 1714 0004 0446     		mov	r4, r0
 353:Core/Src/minmea.c ****     if (!minmea_check(sentence, strict))
 1715              		.loc 1 353 5 is_stmt 1 view .LVU492
 1716              		.loc 1 353 10 is_stmt 0 view .LVU493
 1717 0006 FFF7FEFF 		bl	minmea_check
 1718              	.LVL189:
 1719              		.loc 1 353 8 view .LVU494
 1720 000a 0028     		cmp	r0, #0
 1721 000c 3ED0     		beq	.L156
 354:Core/Src/minmea.c ****         return MINMEA_INVALID;
 355:Core/Src/minmea.c **** 
 356:Core/Src/minmea.c ****     char type[6];
ARM GAS  /var/folders/_g/2c7lhzm90n5_zxwlm2w6npkr0000gn/T//ccM86DqO.s 			page 47


 1722              		.loc 1 356 5 is_stmt 1 view .LVU495
 357:Core/Src/minmea.c ****     if (!minmea_scan(sentence, "t", type))
 1723              		.loc 1 357 5 view .LVU496
 1724              		.loc 1 357 10 is_stmt 0 view .LVU497
 1725 000e 6A46     		mov	r2, sp
 1726 0010 2B49     		ldr	r1, .L168
 1727 0012 2046     		mov	r0, r4
 1728 0014 FFF7FEFF 		bl	minmea_scan
 1729              	.LVL190:
 1730              		.loc 1 357 8 view .LVU498
 1731 0018 0028     		cmp	r0, #0
 1732 001a 3AD0     		beq	.L157
 358:Core/Src/minmea.c ****         return MINMEA_INVALID;
 359:Core/Src/minmea.c **** 
 360:Core/Src/minmea.c ****     if (!strcmp(type+2, "GBS"))
 1733              		.loc 1 360 5 is_stmt 1 view .LVU499
 1734              		.loc 1 360 10 is_stmt 0 view .LVU500
 1735 001c 2949     		ldr	r1, .L168+4
 1736 001e 0DF10200 		add	r0, sp, #2
 1737 0022 FFF7FEFF 		bl	strcmp
 1738              	.LVL191:
 1739              		.loc 1 360 8 view .LVU501
 1740 0026 B8B3     		cbz	r0, .L158
 361:Core/Src/minmea.c ****         return MINMEA_SENTENCE_GBS;
 362:Core/Src/minmea.c ****     if (!strcmp(type+2, "GGA"))
 1741              		.loc 1 362 5 is_stmt 1 view .LVU502
 1742              		.loc 1 362 10 is_stmt 0 view .LVU503
 1743 0028 2749     		ldr	r1, .L168+8
 1744 002a 0DF10200 		add	r0, sp, #2
 1745 002e FFF7FEFF 		bl	strcmp
 1746              	.LVL192:
 1747              		.loc 1 362 8 view .LVU504
 1748 0032 A0B3     		cbz	r0, .L159
 363:Core/Src/minmea.c ****         return MINMEA_SENTENCE_GGA;
 364:Core/Src/minmea.c ****     if (!strcmp(type+2, "GLL"))
 1749              		.loc 1 364 5 is_stmt 1 view .LVU505
 1750              		.loc 1 364 10 is_stmt 0 view .LVU506
 1751 0034 2549     		ldr	r1, .L168+12
 1752 0036 0DF10200 		add	r0, sp, #2
 1753 003a FFF7FEFF 		bl	strcmp
 1754              	.LVL193:
 1755              		.loc 1 364 8 view .LVU507
 1756 003e 80B3     		cbz	r0, .L160
 365:Core/Src/minmea.c ****         return MINMEA_SENTENCE_GLL;
 366:Core/Src/minmea.c ****     if (!strcmp(type+2, "GSA"))
 1757              		.loc 1 366 5 is_stmt 1 view .LVU508
 1758              		.loc 1 366 10 is_stmt 0 view .LVU509
 1759 0040 2349     		ldr	r1, .L168+16
 1760 0042 0DF10200 		add	r0, sp, #2
 1761 0046 FFF7FEFF 		bl	strcmp
 1762              	.LVL194:
 1763              		.loc 1 366 8 view .LVU510
 1764 004a 60B3     		cbz	r0, .L161
 367:Core/Src/minmea.c ****         return MINMEA_SENTENCE_GSA;
 368:Core/Src/minmea.c ****     if (!strcmp(type+2, "GST"))
 1765              		.loc 1 368 5 is_stmt 1 view .LVU511
 1766              		.loc 1 368 10 is_stmt 0 view .LVU512
ARM GAS  /var/folders/_g/2c7lhzm90n5_zxwlm2w6npkr0000gn/T//ccM86DqO.s 			page 48


 1767 004c 2149     		ldr	r1, .L168+20
 1768 004e 0DF10200 		add	r0, sp, #2
 1769 0052 FFF7FEFF 		bl	strcmp
 1770              	.LVL195:
 1771              		.loc 1 368 8 view .LVU513
 1772 0056 40B3     		cbz	r0, .L162
 369:Core/Src/minmea.c ****         return MINMEA_SENTENCE_GST;
 370:Core/Src/minmea.c ****     if (!strcmp(type+2, "GSV"))
 1773              		.loc 1 370 5 is_stmt 1 view .LVU514
 1774              		.loc 1 370 10 is_stmt 0 view .LVU515
 1775 0058 1F49     		ldr	r1, .L168+24
 1776 005a 0DF10200 		add	r0, sp, #2
 1777 005e FFF7FEFF 		bl	strcmp
 1778              	.LVL196:
 1779              		.loc 1 370 8 view .LVU516
 1780 0062 20B3     		cbz	r0, .L163
 371:Core/Src/minmea.c ****         return MINMEA_SENTENCE_GSV;
 372:Core/Src/minmea.c ****     if (!strcmp(type+2, "RMC"))
 1781              		.loc 1 372 5 is_stmt 1 view .LVU517
 1782              		.loc 1 372 10 is_stmt 0 view .LVU518
 1783 0064 1D49     		ldr	r1, .L168+28
 1784 0066 0DF10200 		add	r0, sp, #2
 1785 006a FFF7FEFF 		bl	strcmp
 1786              	.LVL197:
 1787              		.loc 1 372 8 view .LVU519
 1788 006e 00B3     		cbz	r0, .L164
 373:Core/Src/minmea.c ****         return MINMEA_SENTENCE_RMC;
 374:Core/Src/minmea.c ****     if (!strcmp(type+2, "VTG"))
 1789              		.loc 1 374 5 is_stmt 1 view .LVU520
 1790              		.loc 1 374 10 is_stmt 0 view .LVU521
 1791 0070 1B49     		ldr	r1, .L168+32
 1792 0072 0DF10200 		add	r0, sp, #2
 1793 0076 FFF7FEFF 		bl	strcmp
 1794              	.LVL198:
 1795              		.loc 1 374 8 view .LVU522
 1796 007a E0B1     		cbz	r0, .L165
 375:Core/Src/minmea.c ****         return MINMEA_SENTENCE_VTG;
 376:Core/Src/minmea.c ****     if (!strcmp(type+2, "ZDA"))
 1797              		.loc 1 376 5 is_stmt 1 view .LVU523
 1798              		.loc 1 376 10 is_stmt 0 view .LVU524
 1799 007c 1949     		ldr	r1, .L168+36
 1800 007e 0DF10200 		add	r0, sp, #2
 1801 0082 FFF7FEFF 		bl	strcmp
 1802              	.LVL199:
 1803              		.loc 1 376 8 view .LVU525
 1804 0086 C0B1     		cbz	r0, .L166
 377:Core/Src/minmea.c ****         return MINMEA_SENTENCE_ZDA;
 378:Core/Src/minmea.c **** 
 379:Core/Src/minmea.c ****     return MINMEA_UNKNOWN;
 1805              		.loc 1 379 12 view .LVU526
 1806 0088 0020     		movs	r0, #0
 1807 008a 06E0     		b	.L155
 1808              	.L156:
 354:Core/Src/minmea.c **** 
 1809              		.loc 1 354 16 view .LVU527
 1810 008c 4FF0FF30 		mov	r0, #-1
 1811 0090 03E0     		b	.L155
ARM GAS  /var/folders/_g/2c7lhzm90n5_zxwlm2w6npkr0000gn/T//ccM86DqO.s 			page 49


 1812              	.L157:
 358:Core/Src/minmea.c **** 
 1813              		.loc 1 358 16 view .LVU528
 1814 0092 4FF0FF30 		mov	r0, #-1
 1815 0096 00E0     		b	.L155
 1816              	.L158:
 361:Core/Src/minmea.c ****     if (!strcmp(type+2, "GGA"))
 1817              		.loc 1 361 16 view .LVU529
 1818 0098 0120     		movs	r0, #1
 1819              	.L155:
 380:Core/Src/minmea.c **** }
 1820              		.loc 1 380 1 view .LVU530
 1821 009a 02B0     		add	sp, sp, #8
 1822              		.cfi_remember_state
 1823              		.cfi_def_cfa_offset 8
 1824              		@ sp needed
 1825 009c 10BD     		pop	{r4, pc}
 1826              	.LVL200:
 1827              	.L159:
 1828              		.cfi_restore_state
 363:Core/Src/minmea.c ****     if (!strcmp(type+2, "GLL"))
 1829              		.loc 1 363 16 view .LVU531
 1830 009e 0220     		movs	r0, #2
 1831 00a0 FBE7     		b	.L155
 1832              	.L160:
 365:Core/Src/minmea.c ****     if (!strcmp(type+2, "GSA"))
 1833              		.loc 1 365 16 view .LVU532
 1834 00a2 0320     		movs	r0, #3
 1835 00a4 F9E7     		b	.L155
 1836              	.L161:
 367:Core/Src/minmea.c ****     if (!strcmp(type+2, "GST"))
 1837              		.loc 1 367 16 view .LVU533
 1838 00a6 0420     		movs	r0, #4
 1839 00a8 F7E7     		b	.L155
 1840              	.L162:
 369:Core/Src/minmea.c ****     if (!strcmp(type+2, "GSV"))
 1841              		.loc 1 369 16 view .LVU534
 1842 00aa 0520     		movs	r0, #5
 1843 00ac F5E7     		b	.L155
 1844              	.L163:
 371:Core/Src/minmea.c ****     if (!strcmp(type+2, "RMC"))
 1845              		.loc 1 371 16 view .LVU535
 1846 00ae 0620     		movs	r0, #6
 1847 00b0 F3E7     		b	.L155
 1848              	.L164:
 373:Core/Src/minmea.c ****     if (!strcmp(type+2, "VTG"))
 1849              		.loc 1 373 16 view .LVU536
 1850 00b2 0720     		movs	r0, #7
 1851 00b4 F1E7     		b	.L155
 1852              	.L165:
 375:Core/Src/minmea.c ****     if (!strcmp(type+2, "ZDA"))
 1853              		.loc 1 375 16 view .LVU537
 1854 00b6 0820     		movs	r0, #8
 1855 00b8 EFE7     		b	.L155
 1856              	.L166:
 377:Core/Src/minmea.c **** 
 1857              		.loc 1 377 16 view .LVU538
ARM GAS  /var/folders/_g/2c7lhzm90n5_zxwlm2w6npkr0000gn/T//ccM86DqO.s 			page 50


 1858 00ba 0920     		movs	r0, #9
 1859 00bc EDE7     		b	.L155
 1860              	.L169:
 1861 00be 00BF     		.align	2
 1862              	.L168:
 1863 00c0 00000000 		.word	.LC0
 1864 00c4 00000000 		.word	.LC1
 1865 00c8 04000000 		.word	.LC2
 1866 00cc 08000000 		.word	.LC3
 1867 00d0 0C000000 		.word	.LC4
 1868 00d4 10000000 		.word	.LC5
 1869 00d8 14000000 		.word	.LC6
 1870 00dc 18000000 		.word	.LC7
 1871 00e0 1C000000 		.word	.LC8
 1872 00e4 20000000 		.word	.LC9
 1873              		.cfi_endproc
 1874              	.LFE10:
 1876              		.section	.rodata.minmea_parse_gbs.str1.4,"aMS",%progbits,1
 1877              		.align	2
 1878              	.LC10:
 1879 0000 74546666 		.ascii	"tTfffifff\000"
 1879      66696666 
 1879      6600
 1880              		.section	.text.minmea_parse_gbs,"ax",%progbits
 1881              		.align	1
 1882              		.global	minmea_parse_gbs
 1883              		.syntax unified
 1884              		.thumb
 1885              		.thumb_func
 1887              	minmea_parse_gbs:
 1888              	.LVL201:
 1889              	.LFB11:
 381:Core/Src/minmea.c **** 
 382:Core/Src/minmea.c **** bool minmea_parse_gbs(struct minmea_sentence_gbs *frame, const char *sentence)
 383:Core/Src/minmea.c **** {
 1890              		.loc 1 383 1 is_stmt 1 view -0
 1891              		.cfi_startproc
 1892              		@ args = 0, pretend = 0, frame = 8
 1893              		@ frame_needed = 0, uses_anonymous_args = 0
 1894              		.loc 1 383 1 is_stmt 0 view .LVU540
 1895 0000 10B5     		push	{r4, lr}
 1896              		.cfi_def_cfa_offset 8
 1897              		.cfi_offset 4, -8
 1898              		.cfi_offset 14, -4
 1899 0002 8AB0     		sub	sp, sp, #40
 1900              		.cfi_def_cfa_offset 48
 1901 0004 0346     		mov	r3, r0
 1902 0006 0846     		mov	r0, r1
 1903              	.LVL202:
 384:Core/Src/minmea.c ****     // $GNGBS,170556.00,3.0,2.9,8.3,,,,*5C
 385:Core/Src/minmea.c ****     char type[6];
 1904              		.loc 1 385 5 is_stmt 1 view .LVU541
 386:Core/Src/minmea.c ****     if (!minmea_scan(sentence, "tTfffifff",
 1905              		.loc 1 386 5 view .LVU542
 1906              		.loc 1 386 10 is_stmt 0 view .LVU543
 1907 0008 03F13C02 		add	r2, r3, #60
 1908 000c 0692     		str	r2, [sp, #24]
ARM GAS  /var/folders/_g/2c7lhzm90n5_zxwlm2w6npkr0000gn/T//ccM86DqO.s 			page 51


 1909 000e 03F13402 		add	r2, r3, #52
 1910 0012 0592     		str	r2, [sp, #20]
 1911 0014 03F12C02 		add	r2, r3, #44
 1912 0018 0492     		str	r2, [sp, #16]
 1913 001a 03F12802 		add	r2, r3, #40
 1914 001e 0392     		str	r2, [sp, #12]
 1915 0020 03F12002 		add	r2, r3, #32
 1916 0024 0292     		str	r2, [sp, #8]
 1917 0026 03F11802 		add	r2, r3, #24
 1918 002a 0192     		str	r2, [sp, #4]
 1919 002c 03F11002 		add	r2, r3, #16
 1920 0030 0092     		str	r2, [sp]
 1921 0032 08AA     		add	r2, sp, #32
 1922 0034 0749     		ldr	r1, .L175
 1923              	.LVL203:
 1924              		.loc 1 386 10 view .LVU544
 1925 0036 FFF7FEFF 		bl	minmea_scan
 1926              	.LVL204:
 1927              		.loc 1 386 8 view .LVU545
 1928 003a 0446     		mov	r4, r0
 1929 003c 28B1     		cbz	r0, .L171
 387:Core/Src/minmea.c ****             type,
 388:Core/Src/minmea.c ****             &frame->time,
 389:Core/Src/minmea.c ****             &frame->err_latitude,
 390:Core/Src/minmea.c ****             &frame->err_longitude,
 391:Core/Src/minmea.c ****             &frame->err_altitude,
 392:Core/Src/minmea.c ****             &frame->svid,
 393:Core/Src/minmea.c ****             &frame->prob,
 394:Core/Src/minmea.c ****             &frame->bias,
 395:Core/Src/minmea.c ****             &frame->stddev
 396:Core/Src/minmea.c ****             ))
 397:Core/Src/minmea.c ****         return false;
 398:Core/Src/minmea.c ****     if (strcmp(type+2, "GBS"))
 1930              		.loc 1 398 5 is_stmt 1 view .LVU546
 1931              		.loc 1 398 9 is_stmt 0 view .LVU547
 1932 003e 0649     		ldr	r1, .L175+4
 1933 0040 0DF12200 		add	r0, sp, #34
 1934 0044 FFF7FEFF 		bl	strcmp
 1935              	.LVL205:
 1936              		.loc 1 398 8 view .LVU548
 1937 0048 10B9     		cbnz	r0, .L174
 1938              	.L171:
 399:Core/Src/minmea.c ****         return false;
 400:Core/Src/minmea.c **** 
 401:Core/Src/minmea.c ****     return true;
 402:Core/Src/minmea.c **** }
 1939              		.loc 1 402 1 view .LVU549
 1940 004a 2046     		mov	r0, r4
 1941 004c 0AB0     		add	sp, sp, #40
 1942              		.cfi_remember_state
 1943              		.cfi_def_cfa_offset 8
 1944              		@ sp needed
 1945 004e 10BD     		pop	{r4, pc}
 1946              	.L174:
 1947              		.cfi_restore_state
 399:Core/Src/minmea.c ****         return false;
 1948              		.loc 1 399 16 view .LVU550
ARM GAS  /var/folders/_g/2c7lhzm90n5_zxwlm2w6npkr0000gn/T//ccM86DqO.s 			page 52


 1949 0050 0024     		movs	r4, #0
 1950 0052 FAE7     		b	.L171
 1951              	.L176:
 1952              		.align	2
 1953              	.L175:
 1954 0054 00000000 		.word	.LC10
 1955 0058 00000000 		.word	.LC1
 1956              		.cfi_endproc
 1957              	.LFE11:
 1959              		.section	.rodata.minmea_parse_rmc.str1.4,"aMS",%progbits,1
 1960              		.align	2
 1961              	.LC11:
 1962 0000 74546366 		.ascii	"tTcfdfdffDfd\000"
 1962      64666466 
 1962      66446664 
 1962      00
 1963              		.section	.text.minmea_parse_rmc,"ax",%progbits
 1964              		.align	1
 1965              		.global	minmea_parse_rmc
 1966              		.syntax unified
 1967              		.thumb
 1968              		.thumb_func
 1970              	minmea_parse_rmc:
 1971              	.LVL206:
 1972              	.LFB12:
 403:Core/Src/minmea.c **** 
 404:Core/Src/minmea.c **** bool minmea_parse_rmc(struct minmea_sentence_rmc *frame, const char *sentence)
 405:Core/Src/minmea.c **** {
 1973              		.loc 1 405 1 is_stmt 1 view -0
 1974              		.cfi_startproc
 1975              		@ args = 0, pretend = 0, frame = 24
 1976              		@ frame_needed = 0, uses_anonymous_args = 0
 1977              		.loc 1 405 1 is_stmt 0 view .LVU552
 1978 0000 30B5     		push	{r4, r5, lr}
 1979              		.cfi_def_cfa_offset 12
 1980              		.cfi_offset 4, -12
 1981              		.cfi_offset 5, -8
 1982              		.cfi_offset 14, -4
 1983 0002 91B0     		sub	sp, sp, #68
 1984              		.cfi_def_cfa_offset 80
 1985 0004 0446     		mov	r4, r0
 1986 0006 0846     		mov	r0, r1
 1987              	.LVL207:
 406:Core/Src/minmea.c ****     // $GPRMC,081836,A,3751.65,S,14507.36,E,000.0,360.0,130998,011.3,E*62
 407:Core/Src/minmea.c ****     char type[6];
 1988              		.loc 1 407 5 is_stmt 1 view .LVU553
 408:Core/Src/minmea.c ****     char validity;
 1989              		.loc 1 408 5 view .LVU554
 409:Core/Src/minmea.c ****     int latitude_direction;
 1990              		.loc 1 409 5 view .LVU555
 410:Core/Src/minmea.c ****     int longitude_direction;
 1991              		.loc 1 410 5 view .LVU556
 411:Core/Src/minmea.c ****     int variation_direction;
 1992              		.loc 1 411 5 view .LVU557
 412:Core/Src/minmea.c ****     if (!minmea_scan(sentence, "tTcfdfdffDfd",
 1993              		.loc 1 412 5 view .LVU558
 1994              		.loc 1 412 10 is_stmt 0 view .LVU559
ARM GAS  /var/folders/_g/2c7lhzm90n5_zxwlm2w6npkr0000gn/T//ccM86DqO.s 			page 53


 1995 0008 0AAB     		add	r3, sp, #40
 1996 000a 0993     		str	r3, [sp, #36]
 1997 000c 04F14003 		add	r3, r4, #64
 1998 0010 0893     		str	r3, [sp, #32]
 1999 0012 04F13403 		add	r3, r4, #52
 2000 0016 0793     		str	r3, [sp, #28]
 2001 0018 04F12C03 		add	r3, r4, #44
 2002 001c 0693     		str	r3, [sp, #24]
 2003 001e 04F12403 		add	r3, r4, #36
 2004 0022 0593     		str	r3, [sp, #20]
 2005 0024 0BAB     		add	r3, sp, #44
 2006 0026 0493     		str	r3, [sp, #16]
 2007 0028 04F11C03 		add	r3, r4, #28
 2008 002c 0393     		str	r3, [sp, #12]
 2009 002e 0CAB     		add	r3, sp, #48
 2010 0030 0293     		str	r3, [sp, #8]
 2011 0032 04F11403 		add	r3, r4, #20
 2012 0036 0193     		str	r3, [sp, #4]
 2013 0038 0DF13703 		add	r3, sp, #55
 2014 003c 0093     		str	r3, [sp]
 2015 003e 2346     		mov	r3, r4
 2016 0040 0EAA     		add	r2, sp, #56
 2017 0042 1349     		ldr	r1, .L181
 2018              	.LVL208:
 2019              		.loc 1 412 10 view .LVU560
 2020 0044 FFF7FEFF 		bl	minmea_scan
 2021              	.LVL209:
 2022              		.loc 1 412 8 view .LVU561
 2023 0048 0546     		mov	r5, r0
 2024 004a D8B1     		cbz	r0, .L178
 413:Core/Src/minmea.c ****             type,
 414:Core/Src/minmea.c ****             &frame->time,
 415:Core/Src/minmea.c ****             &validity,
 416:Core/Src/minmea.c ****             &frame->latitude, &latitude_direction,
 417:Core/Src/minmea.c ****             &frame->longitude, &longitude_direction,
 418:Core/Src/minmea.c ****             &frame->speed,
 419:Core/Src/minmea.c ****             &frame->course,
 420:Core/Src/minmea.c ****             &frame->date,
 421:Core/Src/minmea.c ****             &frame->variation, &variation_direction))
 422:Core/Src/minmea.c ****         return false;
 423:Core/Src/minmea.c ****     if (strcmp(type+2, "RMC"))
 2025              		.loc 1 423 5 is_stmt 1 view .LVU562
 2026              		.loc 1 423 9 is_stmt 0 view .LVU563
 2027 004c 1149     		ldr	r1, .L181+4
 2028 004e 0DF13A00 		add	r0, sp, #58
 2029 0052 FFF7FEFF 		bl	strcmp
 2030              	.LVL210:
 2031              		.loc 1 423 8 view .LVU564
 2032 0056 C0B9     		cbnz	r0, .L179
 424:Core/Src/minmea.c ****         return false;
 425:Core/Src/minmea.c **** 
 426:Core/Src/minmea.c ****     frame->valid = (validity == 'A');
 2033              		.loc 1 426 5 is_stmt 1 view .LVU565
 2034              		.loc 1 426 30 is_stmt 0 view .LVU566
 2035 0058 9DF83730 		ldrb	r3, [sp, #55]	@ zero_extendqisi2
 2036 005c 412B     		cmp	r3, #65
 2037 005e 14BF     		ite	ne
ARM GAS  /var/folders/_g/2c7lhzm90n5_zxwlm2w6npkr0000gn/T//ccM86DqO.s 			page 54


 2038 0060 0023     		movne	r3, #0
 2039 0062 0123     		moveq	r3, #1
 2040              		.loc 1 426 18 view .LVU567
 2041 0064 2374     		strb	r3, [r4, #16]
 427:Core/Src/minmea.c ****     frame->latitude.value *= latitude_direction;
 2042              		.loc 1 427 5 is_stmt 1 view .LVU568
 2043              		.loc 1 427 20 is_stmt 0 view .LVU569
 2044 0066 6269     		ldr	r2, [r4, #20]
 2045              		.loc 1 427 27 view .LVU570
 2046 0068 0C9B     		ldr	r3, [sp, #48]
 2047 006a 02FB03F3 		mul	r3, r2, r3
 2048 006e 6361     		str	r3, [r4, #20]
 428:Core/Src/minmea.c ****     frame->longitude.value *= longitude_direction;
 2049              		.loc 1 428 5 is_stmt 1 view .LVU571
 2050              		.loc 1 428 21 is_stmt 0 view .LVU572
 2051 0070 E269     		ldr	r2, [r4, #28]
 2052              		.loc 1 428 28 view .LVU573
 2053 0072 0B9B     		ldr	r3, [sp, #44]
 2054 0074 02FB03F3 		mul	r3, r2, r3
 2055 0078 E361     		str	r3, [r4, #28]
 429:Core/Src/minmea.c ****     frame->variation.value *= variation_direction;
 2056              		.loc 1 429 5 is_stmt 1 view .LVU574
 2057              		.loc 1 429 21 is_stmt 0 view .LVU575
 2058 007a 226C     		ldr	r2, [r4, #64]
 2059              		.loc 1 429 28 view .LVU576
 2060 007c 0A9B     		ldr	r3, [sp, #40]
 2061 007e 02FB03F3 		mul	r3, r2, r3
 2062 0082 2364     		str	r3, [r4, #64]
 430:Core/Src/minmea.c **** 
 431:Core/Src/minmea.c ****     return true;
 2063              		.loc 1 431 5 is_stmt 1 view .LVU577
 2064              	.L178:
 432:Core/Src/minmea.c **** }
 2065              		.loc 1 432 1 is_stmt 0 view .LVU578
 2066 0084 2846     		mov	r0, r5
 2067 0086 11B0     		add	sp, sp, #68
 2068              		.cfi_remember_state
 2069              		.cfi_def_cfa_offset 12
 2070              		@ sp needed
 2071 0088 30BD     		pop	{r4, r5, pc}
 2072              	.LVL211:
 2073              	.L179:
 2074              		.cfi_restore_state
 424:Core/Src/minmea.c **** 
 2075              		.loc 1 424 16 view .LVU579
 2076 008a 0025     		movs	r5, #0
 2077 008c FAE7     		b	.L178
 2078              	.L182:
 2079 008e 00BF     		.align	2
 2080              	.L181:
 2081 0090 00000000 		.word	.LC11
 2082 0094 18000000 		.word	.LC7
 2083              		.cfi_endproc
 2084              	.LFE12:
 2086              		.section	.rodata.minmea_parse_gga.str1.4,"aMS",%progbits,1
 2087              		.align	2
 2088              	.LC12:
ARM GAS  /var/folders/_g/2c7lhzm90n5_zxwlm2w6npkr0000gn/T//ccM86DqO.s 			page 55


 2089 0000 74546664 		.ascii	"tTfdfdiiffcfcf_\000"
 2089      66646969 
 2089      66666366 
 2089      63665F00 
 2090              		.section	.text.minmea_parse_gga,"ax",%progbits
 2091              		.align	1
 2092              		.global	minmea_parse_gga
 2093              		.syntax unified
 2094              		.thumb
 2095              		.thumb_func
 2097              	minmea_parse_gga:
 2098              	.LVL212:
 2099              	.LFB13:
 433:Core/Src/minmea.c **** 
 434:Core/Src/minmea.c **** bool minmea_parse_gga(struct minmea_sentence_gga *frame, const char *sentence)
 435:Core/Src/minmea.c **** {
 2100              		.loc 1 435 1 is_stmt 1 view -0
 2101              		.cfi_startproc
 2102              		@ args = 0, pretend = 0, frame = 16
 2103              		@ frame_needed = 0, uses_anonymous_args = 0
 2104              		.loc 1 435 1 is_stmt 0 view .LVU581
 2105 0000 30B5     		push	{r4, r5, lr}
 2106              		.cfi_def_cfa_offset 12
 2107              		.cfi_offset 4, -12
 2108              		.cfi_offset 5, -8
 2109              		.cfi_offset 14, -4
 2110 0002 91B0     		sub	sp, sp, #68
 2111              		.cfi_def_cfa_offset 80
 2112 0004 0446     		mov	r4, r0
 2113 0006 0846     		mov	r0, r1
 2114              	.LVL213:
 436:Core/Src/minmea.c ****     // $GPGGA,123519,4807.038,N,01131.000,E,1,08,0.9,545.4,M,46.9,M,,*47
 437:Core/Src/minmea.c ****     char type[6];
 2115              		.loc 1 437 5 is_stmt 1 view .LVU582
 438:Core/Src/minmea.c ****     int latitude_direction;
 2116              		.loc 1 438 5 view .LVU583
 439:Core/Src/minmea.c ****     int longitude_direction;
 2117              		.loc 1 439 5 view .LVU584
 440:Core/Src/minmea.c **** 
 441:Core/Src/minmea.c ****     if (!minmea_scan(sentence, "tTfdfdiiffcfcf_",
 2118              		.loc 1 441 5 view .LVU585
 2119              		.loc 1 441 10 is_stmt 0 view .LVU586
 2120 0008 04F14803 		add	r3, r4, #72
 2121 000c 0B93     		str	r3, [sp, #44]
 2122 000e 04F14403 		add	r3, r4, #68
 2123 0012 0A93     		str	r3, [sp, #40]
 2124 0014 04F13C03 		add	r3, r4, #60
 2125 0018 0993     		str	r3, [sp, #36]
 2126 001a 04F13803 		add	r3, r4, #56
 2127 001e 0893     		str	r3, [sp, #32]
 2128 0020 04F13003 		add	r3, r4, #48
 2129 0024 0793     		str	r3, [sp, #28]
 2130 0026 04F12803 		add	r3, r4, #40
 2131 002a 0693     		str	r3, [sp, #24]
 2132 002c 04F12403 		add	r3, r4, #36
 2133 0030 0593     		str	r3, [sp, #20]
 2134 0032 04F12003 		add	r3, r4, #32
ARM GAS  /var/folders/_g/2c7lhzm90n5_zxwlm2w6npkr0000gn/T//ccM86DqO.s 			page 56


 2135 0036 0493     		str	r3, [sp, #16]
 2136 0038 0CAB     		add	r3, sp, #48
 2137 003a 0393     		str	r3, [sp, #12]
 2138 003c 04F11803 		add	r3, r4, #24
 2139 0040 0293     		str	r3, [sp, #8]
 2140 0042 0DAB     		add	r3, sp, #52
 2141 0044 0193     		str	r3, [sp, #4]
 2142 0046 04F11003 		add	r3, r4, #16
 2143 004a 0093     		str	r3, [sp]
 2144 004c 2346     		mov	r3, r4
 2145 004e 0EAA     		add	r2, sp, #56
 2146 0050 0C49     		ldr	r1, .L187
 2147              	.LVL214:
 2148              		.loc 1 441 10 view .LVU587
 2149 0052 FFF7FEFF 		bl	minmea_scan
 2150              	.LVL215:
 2151              		.loc 1 441 8 view .LVU588
 2152 0056 0546     		mov	r5, r0
 2153 0058 78B1     		cbz	r0, .L184
 442:Core/Src/minmea.c ****             type,
 443:Core/Src/minmea.c ****             &frame->time,
 444:Core/Src/minmea.c ****             &frame->latitude, &latitude_direction,
 445:Core/Src/minmea.c ****             &frame->longitude, &longitude_direction,
 446:Core/Src/minmea.c ****             &frame->fix_quality,
 447:Core/Src/minmea.c ****             &frame->satellites_tracked,
 448:Core/Src/minmea.c ****             &frame->hdop,
 449:Core/Src/minmea.c ****             &frame->altitude, &frame->altitude_units,
 450:Core/Src/minmea.c ****             &frame->height, &frame->height_units,
 451:Core/Src/minmea.c ****             &frame->dgps_age))
 452:Core/Src/minmea.c ****         return false;
 453:Core/Src/minmea.c ****     if (strcmp(type+2, "GGA"))
 2154              		.loc 1 453 5 is_stmt 1 view .LVU589
 2155              		.loc 1 453 9 is_stmt 0 view .LVU590
 2156 005a 0B49     		ldr	r1, .L187+4
 2157 005c 0DF13A00 		add	r0, sp, #58
 2158 0060 FFF7FEFF 		bl	strcmp
 2159              	.LVL216:
 2160              		.loc 1 453 8 view .LVU591
 2161 0064 60B9     		cbnz	r0, .L185
 454:Core/Src/minmea.c ****         return false;
 455:Core/Src/minmea.c **** 
 456:Core/Src/minmea.c ****     frame->latitude.value *= latitude_direction;
 2162              		.loc 1 456 5 is_stmt 1 view .LVU592
 2163              		.loc 1 456 20 is_stmt 0 view .LVU593
 2164 0066 2269     		ldr	r2, [r4, #16]
 2165              		.loc 1 456 27 view .LVU594
 2166 0068 0D9B     		ldr	r3, [sp, #52]
 2167 006a 02FB03F3 		mul	r3, r2, r3
 2168 006e 2361     		str	r3, [r4, #16]
 457:Core/Src/minmea.c ****     frame->longitude.value *= longitude_direction;
 2169              		.loc 1 457 5 is_stmt 1 view .LVU595
 2170              		.loc 1 457 21 is_stmt 0 view .LVU596
 2171 0070 A269     		ldr	r2, [r4, #24]
 2172              		.loc 1 457 28 view .LVU597
 2173 0072 0C9B     		ldr	r3, [sp, #48]
 2174 0074 02FB03F3 		mul	r3, r2, r3
 2175 0078 A361     		str	r3, [r4, #24]
ARM GAS  /var/folders/_g/2c7lhzm90n5_zxwlm2w6npkr0000gn/T//ccM86DqO.s 			page 57


 458:Core/Src/minmea.c **** 
 459:Core/Src/minmea.c ****     return true;
 2176              		.loc 1 459 5 is_stmt 1 view .LVU598
 2177              	.L184:
 460:Core/Src/minmea.c **** }
 2178              		.loc 1 460 1 is_stmt 0 view .LVU599
 2179 007a 2846     		mov	r0, r5
 2180 007c 11B0     		add	sp, sp, #68
 2181              		.cfi_remember_state
 2182              		.cfi_def_cfa_offset 12
 2183              		@ sp needed
 2184 007e 30BD     		pop	{r4, r5, pc}
 2185              	.LVL217:
 2186              	.L185:
 2187              		.cfi_restore_state
 454:Core/Src/minmea.c **** 
 2188              		.loc 1 454 16 view .LVU600
 2189 0080 0025     		movs	r5, #0
 2190 0082 FAE7     		b	.L184
 2191              	.L188:
 2192              		.align	2
 2193              	.L187:
 2194 0084 00000000 		.word	.LC12
 2195 0088 04000000 		.word	.LC2
 2196              		.cfi_endproc
 2197              	.LFE13:
 2199              		.section	.rodata.minmea_parse_gsa.str1.4,"aMS",%progbits,1
 2200              		.align	2
 2201              	.LC13:
 2202 0000 74636969 		.ascii	"tciiiiiiiiiiiiifff\000"
 2202      69696969 
 2202      69696969 
 2202      69696966 
 2202      666600
 2203              		.section	.text.minmea_parse_gsa,"ax",%progbits
 2204              		.align	1
 2205              		.global	minmea_parse_gsa
 2206              		.syntax unified
 2207              		.thumb
 2208              		.thumb_func
 2210              	minmea_parse_gsa:
 2211              	.LVL218:
 2212              	.LFB14:
 461:Core/Src/minmea.c **** 
 462:Core/Src/minmea.c **** bool minmea_parse_gsa(struct minmea_sentence_gsa *frame, const char *sentence)
 463:Core/Src/minmea.c **** {
 2213              		.loc 1 463 1 is_stmt 1 view -0
 2214              		.cfi_startproc
 2215              		@ args = 0, pretend = 0, frame = 8
 2216              		@ frame_needed = 0, uses_anonymous_args = 0
 2217              		.loc 1 463 1 is_stmt 0 view .LVU602
 2218 0000 10B5     		push	{r4, lr}
 2219              		.cfi_def_cfa_offset 8
 2220              		.cfi_offset 4, -8
 2221              		.cfi_offset 14, -4
 2222 0002 92B0     		sub	sp, sp, #72
 2223              		.cfi_def_cfa_offset 80
ARM GAS  /var/folders/_g/2c7lhzm90n5_zxwlm2w6npkr0000gn/T//ccM86DqO.s 			page 58


 2224 0004 0346     		mov	r3, r0
 2225 0006 0846     		mov	r0, r1
 2226              	.LVL219:
 464:Core/Src/minmea.c ****     // $GPGSA,A,3,04,05,,09,12,,,24,,,,,2.5,1.3,2.1*39
 465:Core/Src/minmea.c ****     char type[6];
 2227              		.loc 1 465 5 is_stmt 1 view .LVU603
 466:Core/Src/minmea.c **** 
 467:Core/Src/minmea.c ****     if (!minmea_scan(sentence, "tciiiiiiiiiiiiifff",
 2228              		.loc 1 467 5 view .LVU604
 2229              		.loc 1 467 10 is_stmt 0 view .LVU605
 2230 0008 03F14802 		add	r2, r3, #72
 2231 000c 0F92     		str	r2, [sp, #60]
 2232 000e 03F14002 		add	r2, r3, #64
 2233 0012 0E92     		str	r2, [sp, #56]
 2234 0014 03F13802 		add	r2, r3, #56
 2235 0018 0D92     		str	r2, [sp, #52]
 2236 001a 03F13402 		add	r2, r3, #52
 2237 001e 0C92     		str	r2, [sp, #48]
 2238 0020 03F13002 		add	r2, r3, #48
 2239 0024 0B92     		str	r2, [sp, #44]
 2240 0026 03F12C02 		add	r2, r3, #44
 2241 002a 0A92     		str	r2, [sp, #40]
 2242 002c 03F12802 		add	r2, r3, #40
 2243 0030 0992     		str	r2, [sp, #36]
 2244 0032 03F12402 		add	r2, r3, #36
 2245 0036 0892     		str	r2, [sp, #32]
 2246 0038 03F12002 		add	r2, r3, #32
 2247 003c 0792     		str	r2, [sp, #28]
 2248 003e 03F11C02 		add	r2, r3, #28
 2249 0042 0692     		str	r2, [sp, #24]
 2250 0044 03F11802 		add	r2, r3, #24
 2251 0048 0592     		str	r2, [sp, #20]
 2252 004a 03F11402 		add	r2, r3, #20
 2253 004e 0492     		str	r2, [sp, #16]
 2254 0050 03F11002 		add	r2, r3, #16
 2255 0054 0392     		str	r2, [sp, #12]
 2256 0056 03F10C02 		add	r2, r3, #12
 2257 005a 0292     		str	r2, [sp, #8]
 2258 005c 03F10802 		add	r2, r3, #8
 2259 0060 0192     		str	r2, [sp, #4]
 2260 0062 1A1D     		adds	r2, r3, #4
 2261 0064 0092     		str	r2, [sp]
 2262 0066 10AA     		add	r2, sp, #64
 2263 0068 0749     		ldr	r1, .L194
 2264              	.LVL220:
 2265              		.loc 1 467 10 view .LVU606
 2266 006a FFF7FEFF 		bl	minmea_scan
 2267              	.LVL221:
 2268              		.loc 1 467 8 view .LVU607
 2269 006e 0446     		mov	r4, r0
 2270 0070 28B1     		cbz	r0, .L190
 468:Core/Src/minmea.c ****             type,
 469:Core/Src/minmea.c ****             &frame->mode,
 470:Core/Src/minmea.c ****             &frame->fix_type,
 471:Core/Src/minmea.c ****             &frame->sats[0],
 472:Core/Src/minmea.c ****             &frame->sats[1],
 473:Core/Src/minmea.c ****             &frame->sats[2],
ARM GAS  /var/folders/_g/2c7lhzm90n5_zxwlm2w6npkr0000gn/T//ccM86DqO.s 			page 59


 474:Core/Src/minmea.c ****             &frame->sats[3],
 475:Core/Src/minmea.c ****             &frame->sats[4],
 476:Core/Src/minmea.c ****             &frame->sats[5],
 477:Core/Src/minmea.c ****             &frame->sats[6],
 478:Core/Src/minmea.c ****             &frame->sats[7],
 479:Core/Src/minmea.c ****             &frame->sats[8],
 480:Core/Src/minmea.c ****             &frame->sats[9],
 481:Core/Src/minmea.c ****             &frame->sats[10],
 482:Core/Src/minmea.c ****             &frame->sats[11],
 483:Core/Src/minmea.c ****             &frame->pdop,
 484:Core/Src/minmea.c ****             &frame->hdop,
 485:Core/Src/minmea.c ****             &frame->vdop))
 486:Core/Src/minmea.c ****         return false;
 487:Core/Src/minmea.c ****     if (strcmp(type+2, "GSA"))
 2271              		.loc 1 487 5 is_stmt 1 view .LVU608
 2272              		.loc 1 487 9 is_stmt 0 view .LVU609
 2273 0072 0649     		ldr	r1, .L194+4
 2274 0074 0DF14200 		add	r0, sp, #66
 2275 0078 FFF7FEFF 		bl	strcmp
 2276              	.LVL222:
 2277              		.loc 1 487 8 view .LVU610
 2278 007c 10B9     		cbnz	r0, .L193
 2279              	.L190:
 488:Core/Src/minmea.c ****         return false;
 489:Core/Src/minmea.c **** 
 490:Core/Src/minmea.c ****     return true;
 491:Core/Src/minmea.c **** }
 2280              		.loc 1 491 1 view .LVU611
 2281 007e 2046     		mov	r0, r4
 2282 0080 12B0     		add	sp, sp, #72
 2283              		.cfi_remember_state
 2284              		.cfi_def_cfa_offset 8
 2285              		@ sp needed
 2286 0082 10BD     		pop	{r4, pc}
 2287              	.L193:
 2288              		.cfi_restore_state
 488:Core/Src/minmea.c ****         return false;
 2289              		.loc 1 488 16 view .LVU612
 2290 0084 0024     		movs	r4, #0
 2291 0086 FAE7     		b	.L190
 2292              	.L195:
 2293              		.align	2
 2294              	.L194:
 2295 0088 00000000 		.word	.LC13
 2296 008c 0C000000 		.word	.LC4
 2297              		.cfi_endproc
 2298              	.LFE14:
 2300              		.section	.rodata.minmea_parse_gll.str1.4,"aMS",%progbits,1
 2301              		.align	2
 2302              	.LC14:
 2303 0000 74666466 		.ascii	"tfdfdTc;c\000"
 2303      6454633B 
 2303      6300
 2304              		.section	.text.minmea_parse_gll,"ax",%progbits
 2305              		.align	1
 2306              		.global	minmea_parse_gll
 2307              		.syntax unified
ARM GAS  /var/folders/_g/2c7lhzm90n5_zxwlm2w6npkr0000gn/T//ccM86DqO.s 			page 60


 2308              		.thumb
 2309              		.thumb_func
 2311              	minmea_parse_gll:
 2312              	.LVL223:
 2313              	.LFB15:
 492:Core/Src/minmea.c **** 
 493:Core/Src/minmea.c **** bool minmea_parse_gll(struct minmea_sentence_gll *frame, const char *sentence)
 494:Core/Src/minmea.c **** {
 2314              		.loc 1 494 1 is_stmt 1 view -0
 2315              		.cfi_startproc
 2316              		@ args = 0, pretend = 0, frame = 16
 2317              		@ frame_needed = 0, uses_anonymous_args = 0
 2318              		.loc 1 494 1 is_stmt 0 view .LVU614
 2319 0000 30B5     		push	{r4, r5, lr}
 2320              		.cfi_def_cfa_offset 12
 2321              		.cfi_offset 4, -12
 2322              		.cfi_offset 5, -8
 2323              		.cfi_offset 14, -4
 2324 0002 8BB0     		sub	sp, sp, #44
 2325              		.cfi_def_cfa_offset 56
 2326 0004 0446     		mov	r4, r0
 2327 0006 0846     		mov	r0, r1
 2328              	.LVL224:
 495:Core/Src/minmea.c ****     // $GPGLL,3723.2475,N,12158.3416,W,161229.487,A,A*41$;
 496:Core/Src/minmea.c ****     char type[6];
 2329              		.loc 1 496 5 is_stmt 1 view .LVU615
 497:Core/Src/minmea.c ****     int latitude_direction;
 2330              		.loc 1 497 5 view .LVU616
 498:Core/Src/minmea.c ****     int longitude_direction;
 2331              		.loc 1 498 5 view .LVU617
 499:Core/Src/minmea.c **** 
 500:Core/Src/minmea.c ****     if (!minmea_scan(sentence, "tfdfdTc;c",
 2332              		.loc 1 500 5 view .LVU618
 2333              		.loc 1 500 10 is_stmt 0 view .LVU619
 2334 0008 04F12103 		add	r3, r4, #33
 2335 000c 0593     		str	r3, [sp, #20]
 2336 000e 04F12003 		add	r3, r4, #32
 2337 0012 0493     		str	r3, [sp, #16]
 2338 0014 04F11003 		add	r3, r4, #16
 2339 0018 0393     		str	r3, [sp, #12]
 2340 001a 06AB     		add	r3, sp, #24
 2341 001c 0293     		str	r3, [sp, #8]
 2342 001e 04F10803 		add	r3, r4, #8
 2343 0022 0193     		str	r3, [sp, #4]
 2344 0024 07AB     		add	r3, sp, #28
 2345 0026 0093     		str	r3, [sp]
 2346 0028 2346     		mov	r3, r4
 2347 002a 08AA     		add	r2, sp, #32
 2348 002c 0C49     		ldr	r1, .L200
 2349              	.LVL225:
 2350              		.loc 1 500 10 view .LVU620
 2351 002e FFF7FEFF 		bl	minmea_scan
 2352              	.LVL226:
 2353              		.loc 1 500 8 view .LVU621
 2354 0032 0546     		mov	r5, r0
 2355 0034 78B1     		cbz	r0, .L197
 501:Core/Src/minmea.c ****             type,
ARM GAS  /var/folders/_g/2c7lhzm90n5_zxwlm2w6npkr0000gn/T//ccM86DqO.s 			page 61


 502:Core/Src/minmea.c ****             &frame->latitude, &latitude_direction,
 503:Core/Src/minmea.c ****             &frame->longitude, &longitude_direction,
 504:Core/Src/minmea.c ****             &frame->time,
 505:Core/Src/minmea.c ****             &frame->status,
 506:Core/Src/minmea.c ****             &frame->mode))
 507:Core/Src/minmea.c ****         return false;
 508:Core/Src/minmea.c ****     if (strcmp(type+2, "GLL"))
 2356              		.loc 1 508 5 is_stmt 1 view .LVU622
 2357              		.loc 1 508 9 is_stmt 0 view .LVU623
 2358 0036 0B49     		ldr	r1, .L200+4
 2359 0038 0DF12200 		add	r0, sp, #34
 2360 003c FFF7FEFF 		bl	strcmp
 2361              	.LVL227:
 2362              		.loc 1 508 8 view .LVU624
 2363 0040 60B9     		cbnz	r0, .L198
 509:Core/Src/minmea.c ****         return false;
 510:Core/Src/minmea.c **** 
 511:Core/Src/minmea.c ****     frame->latitude.value *= latitude_direction;
 2364              		.loc 1 511 5 is_stmt 1 view .LVU625
 2365              		.loc 1 511 20 is_stmt 0 view .LVU626
 2366 0042 2268     		ldr	r2, [r4]
 2367              		.loc 1 511 27 view .LVU627
 2368 0044 079B     		ldr	r3, [sp, #28]
 2369 0046 02FB03F3 		mul	r3, r2, r3
 2370 004a 2360     		str	r3, [r4]
 512:Core/Src/minmea.c ****     frame->longitude.value *= longitude_direction;
 2371              		.loc 1 512 5 is_stmt 1 view .LVU628
 2372              		.loc 1 512 21 is_stmt 0 view .LVU629
 2373 004c A268     		ldr	r2, [r4, #8]
 2374              		.loc 1 512 28 view .LVU630
 2375 004e 069B     		ldr	r3, [sp, #24]
 2376 0050 02FB03F3 		mul	r3, r2, r3
 2377 0054 A360     		str	r3, [r4, #8]
 513:Core/Src/minmea.c **** 
 514:Core/Src/minmea.c ****     return true;
 2378              		.loc 1 514 5 is_stmt 1 view .LVU631
 2379              	.L197:
 515:Core/Src/minmea.c **** }
 2380              		.loc 1 515 1 is_stmt 0 view .LVU632
 2381 0056 2846     		mov	r0, r5
 2382 0058 0BB0     		add	sp, sp, #44
 2383              		.cfi_remember_state
 2384              		.cfi_def_cfa_offset 12
 2385              		@ sp needed
 2386 005a 30BD     		pop	{r4, r5, pc}
 2387              	.LVL228:
 2388              	.L198:
 2389              		.cfi_restore_state
 509:Core/Src/minmea.c **** 
 2390              		.loc 1 509 16 view .LVU633
 2391 005c 0025     		movs	r5, #0
 2392 005e FAE7     		b	.L197
 2393              	.L201:
 2394              		.align	2
 2395              	.L200:
 2396 0060 00000000 		.word	.LC14
 2397 0064 08000000 		.word	.LC3
ARM GAS  /var/folders/_g/2c7lhzm90n5_zxwlm2w6npkr0000gn/T//ccM86DqO.s 			page 62


 2398              		.cfi_endproc
 2399              	.LFE15:
 2401              		.section	.rodata.minmea_parse_gst.str1.4,"aMS",%progbits,1
 2402              		.align	2
 2403              	.LC15:
 2404 0000 74546666 		.ascii	"tTfffffff\000"
 2404      66666666 
 2404      6600
 2405              		.section	.text.minmea_parse_gst,"ax",%progbits
 2406              		.align	1
 2407              		.global	minmea_parse_gst
 2408              		.syntax unified
 2409              		.thumb
 2410              		.thumb_func
 2412              	minmea_parse_gst:
 2413              	.LVL229:
 2414              	.LFB16:
 516:Core/Src/minmea.c **** 
 517:Core/Src/minmea.c **** bool minmea_parse_gst(struct minmea_sentence_gst *frame, const char *sentence)
 518:Core/Src/minmea.c **** {
 2415              		.loc 1 518 1 is_stmt 1 view -0
 2416              		.cfi_startproc
 2417              		@ args = 0, pretend = 0, frame = 8
 2418              		@ frame_needed = 0, uses_anonymous_args = 0
 2419              		.loc 1 518 1 is_stmt 0 view .LVU635
 2420 0000 10B5     		push	{r4, lr}
 2421              		.cfi_def_cfa_offset 8
 2422              		.cfi_offset 4, -8
 2423              		.cfi_offset 14, -4
 2424 0002 8AB0     		sub	sp, sp, #40
 2425              		.cfi_def_cfa_offset 48
 2426 0004 0346     		mov	r3, r0
 2427 0006 0846     		mov	r0, r1
 2428              	.LVL230:
 519:Core/Src/minmea.c ****     // $GPGST,024603.00,3.2,6.6,4.7,47.3,5.8,5.6,22.0*58
 520:Core/Src/minmea.c ****     char type[6];
 2429              		.loc 1 520 5 is_stmt 1 view .LVU636
 521:Core/Src/minmea.c **** 
 522:Core/Src/minmea.c ****     if (!minmea_scan(sentence, "tTfffffff",
 2430              		.loc 1 522 5 view .LVU637
 2431              		.loc 1 522 10 is_stmt 0 view .LVU638
 2432 0008 03F14002 		add	r2, r3, #64
 2433 000c 0692     		str	r2, [sp, #24]
 2434 000e 03F13802 		add	r2, r3, #56
 2435 0012 0592     		str	r2, [sp, #20]
 2436 0014 03F13002 		add	r2, r3, #48
 2437 0018 0492     		str	r2, [sp, #16]
 2438 001a 03F12802 		add	r2, r3, #40
 2439 001e 0392     		str	r2, [sp, #12]
 2440 0020 03F12002 		add	r2, r3, #32
 2441 0024 0292     		str	r2, [sp, #8]
 2442 0026 03F11802 		add	r2, r3, #24
 2443 002a 0192     		str	r2, [sp, #4]
 2444 002c 03F11002 		add	r2, r3, #16
 2445 0030 0092     		str	r2, [sp]
 2446 0032 08AA     		add	r2, sp, #32
 2447 0034 0749     		ldr	r1, .L207
ARM GAS  /var/folders/_g/2c7lhzm90n5_zxwlm2w6npkr0000gn/T//ccM86DqO.s 			page 63


 2448              	.LVL231:
 2449              		.loc 1 522 10 view .LVU639
 2450 0036 FFF7FEFF 		bl	minmea_scan
 2451              	.LVL232:
 2452              		.loc 1 522 8 view .LVU640
 2453 003a 0446     		mov	r4, r0
 2454 003c 28B1     		cbz	r0, .L203
 523:Core/Src/minmea.c ****             type,
 524:Core/Src/minmea.c ****             &frame->time,
 525:Core/Src/minmea.c ****             &frame->rms_deviation,
 526:Core/Src/minmea.c ****             &frame->semi_major_deviation,
 527:Core/Src/minmea.c ****             &frame->semi_minor_deviation,
 528:Core/Src/minmea.c ****             &frame->semi_major_orientation,
 529:Core/Src/minmea.c ****             &frame->latitude_error_deviation,
 530:Core/Src/minmea.c ****             &frame->longitude_error_deviation,
 531:Core/Src/minmea.c ****             &frame->altitude_error_deviation))
 532:Core/Src/minmea.c ****         return false;
 533:Core/Src/minmea.c ****     if (strcmp(type+2, "GST"))
 2455              		.loc 1 533 5 is_stmt 1 view .LVU641
 2456              		.loc 1 533 9 is_stmt 0 view .LVU642
 2457 003e 0649     		ldr	r1, .L207+4
 2458 0040 0DF12200 		add	r0, sp, #34
 2459 0044 FFF7FEFF 		bl	strcmp
 2460              	.LVL233:
 2461              		.loc 1 533 8 view .LVU643
 2462 0048 10B9     		cbnz	r0, .L206
 2463              	.L203:
 534:Core/Src/minmea.c ****         return false;
 535:Core/Src/minmea.c **** 
 536:Core/Src/minmea.c ****     return true;
 537:Core/Src/minmea.c **** }
 2464              		.loc 1 537 1 view .LVU644
 2465 004a 2046     		mov	r0, r4
 2466 004c 0AB0     		add	sp, sp, #40
 2467              		.cfi_remember_state
 2468              		.cfi_def_cfa_offset 8
 2469              		@ sp needed
 2470 004e 10BD     		pop	{r4, pc}
 2471              	.L206:
 2472              		.cfi_restore_state
 534:Core/Src/minmea.c ****         return false;
 2473              		.loc 1 534 16 view .LVU645
 2474 0050 0024     		movs	r4, #0
 2475 0052 FAE7     		b	.L203
 2476              	.L208:
 2477              		.align	2
 2478              	.L207:
 2479 0054 00000000 		.word	.LC15
 2480 0058 10000000 		.word	.LC5
 2481              		.cfi_endproc
 2482              	.LFE16:
 2484              		.section	.rodata.minmea_parse_gsv.str1.4,"aMS",%progbits,1
 2485              		.align	2
 2486              	.LC16:
 2487 0000 74696969 		.ascii	"tiii;iiiiiiiiiiiiiiii\000"
 2487      3B696969 
 2487      69696969 
ARM GAS  /var/folders/_g/2c7lhzm90n5_zxwlm2w6npkr0000gn/T//ccM86DqO.s 			page 64


 2487      69696969 
 2487      69696969 
 2488              		.section	.text.minmea_parse_gsv,"ax",%progbits
 2489              		.align	1
 2490              		.global	minmea_parse_gsv
 2491              		.syntax unified
 2492              		.thumb
 2493              		.thumb_func
 2495              	minmea_parse_gsv:
 2496              	.LVL234:
 2497              	.LFB17:
 538:Core/Src/minmea.c **** 
 539:Core/Src/minmea.c **** bool minmea_parse_gsv(struct minmea_sentence_gsv *frame, const char *sentence)
 540:Core/Src/minmea.c **** {
 2498              		.loc 1 540 1 is_stmt 1 view -0
 2499              		.cfi_startproc
 2500              		@ args = 0, pretend = 0, frame = 8
 2501              		@ frame_needed = 0, uses_anonymous_args = 0
 2502              		.loc 1 540 1 is_stmt 0 view .LVU647
 2503 0000 10B5     		push	{r4, lr}
 2504              		.cfi_def_cfa_offset 8
 2505              		.cfi_offset 4, -8
 2506              		.cfi_offset 14, -4
 2507 0002 94B0     		sub	sp, sp, #80
 2508              		.cfi_def_cfa_offset 88
 2509 0004 0346     		mov	r3, r0
 2510 0006 0846     		mov	r0, r1
 2511              	.LVL235:
 541:Core/Src/minmea.c ****     // $GPGSV,3,1,11,03,03,111,00,04,15,270,00,06,01,010,00,13,06,292,00*74
 542:Core/Src/minmea.c ****     // $GPGSV,3,3,11,22,42,067,42,24,14,311,43,27,05,244,00,,,,*4D
 543:Core/Src/minmea.c ****     // $GPGSV,4,2,11,08,51,203,30,09,45,215,28*75
 544:Core/Src/minmea.c ****     // $GPGSV,4,4,13,39,31,170,27*40
 545:Core/Src/minmea.c ****     // $GPGSV,4,4,13*7B
 546:Core/Src/minmea.c ****     char type[6];
 2512              		.loc 1 546 5 is_stmt 1 view .LVU648
 547:Core/Src/minmea.c **** 
 548:Core/Src/minmea.c ****     if (!minmea_scan(sentence, "tiii;iiiiiiiiiiiiiiii",
 2513              		.loc 1 548 5 view .LVU649
 2514              		.loc 1 548 10 is_stmt 0 view .LVU650
 2515 0008 03F14802 		add	r2, r3, #72
 2516 000c 1192     		str	r2, [sp, #68]
 2517 000e 03F14402 		add	r2, r3, #68
 2518 0012 1092     		str	r2, [sp, #64]
 2519 0014 03F14002 		add	r2, r3, #64
 2520 0018 0F92     		str	r2, [sp, #60]
 2521 001a 03F13C02 		add	r2, r3, #60
 2522 001e 0E92     		str	r2, [sp, #56]
 2523 0020 03F13802 		add	r2, r3, #56
 2524 0024 0D92     		str	r2, [sp, #52]
 2525 0026 03F13402 		add	r2, r3, #52
 2526 002a 0C92     		str	r2, [sp, #48]
 2527 002c 03F13002 		add	r2, r3, #48
 2528 0030 0B92     		str	r2, [sp, #44]
 2529 0032 03F12C02 		add	r2, r3, #44
 2530 0036 0A92     		str	r2, [sp, #40]
 2531 0038 03F12802 		add	r2, r3, #40
 2532 003c 0992     		str	r2, [sp, #36]
ARM GAS  /var/folders/_g/2c7lhzm90n5_zxwlm2w6npkr0000gn/T//ccM86DqO.s 			page 65


 2533 003e 03F12402 		add	r2, r3, #36
 2534 0042 0892     		str	r2, [sp, #32]
 2535 0044 03F12002 		add	r2, r3, #32
 2536 0048 0792     		str	r2, [sp, #28]
 2537 004a 03F11C02 		add	r2, r3, #28
 2538 004e 0692     		str	r2, [sp, #24]
 2539 0050 03F11802 		add	r2, r3, #24
 2540 0054 0592     		str	r2, [sp, #20]
 2541 0056 03F11402 		add	r2, r3, #20
 2542 005a 0492     		str	r2, [sp, #16]
 2543 005c 03F11002 		add	r2, r3, #16
 2544 0060 0392     		str	r2, [sp, #12]
 2545 0062 03F10C02 		add	r2, r3, #12
 2546 0066 0292     		str	r2, [sp, #8]
 2547 0068 03F10802 		add	r2, r3, #8
 2548 006c 0192     		str	r2, [sp, #4]
 2549 006e 1A1D     		adds	r2, r3, #4
 2550 0070 0092     		str	r2, [sp]
 2551 0072 12AA     		add	r2, sp, #72
 2552 0074 0749     		ldr	r1, .L214
 2553              	.LVL236:
 2554              		.loc 1 548 10 view .LVU651
 2555 0076 FFF7FEFF 		bl	minmea_scan
 2556              	.LVL237:
 2557              		.loc 1 548 8 view .LVU652
 2558 007a 0446     		mov	r4, r0
 2559 007c 28B1     		cbz	r0, .L210
 549:Core/Src/minmea.c ****             type,
 550:Core/Src/minmea.c ****             &frame->total_msgs,
 551:Core/Src/minmea.c ****             &frame->msg_nr,
 552:Core/Src/minmea.c ****             &frame->total_sats,
 553:Core/Src/minmea.c ****             &frame->sats[0].nr,
 554:Core/Src/minmea.c ****             &frame->sats[0].elevation,
 555:Core/Src/minmea.c ****             &frame->sats[0].azimuth,
 556:Core/Src/minmea.c ****             &frame->sats[0].snr,
 557:Core/Src/minmea.c ****             &frame->sats[1].nr,
 558:Core/Src/minmea.c ****             &frame->sats[1].elevation,
 559:Core/Src/minmea.c ****             &frame->sats[1].azimuth,
 560:Core/Src/minmea.c ****             &frame->sats[1].snr,
 561:Core/Src/minmea.c ****             &frame->sats[2].nr,
 562:Core/Src/minmea.c ****             &frame->sats[2].elevation,
 563:Core/Src/minmea.c ****             &frame->sats[2].azimuth,
 564:Core/Src/minmea.c ****             &frame->sats[2].snr,
 565:Core/Src/minmea.c ****             &frame->sats[3].nr,
 566:Core/Src/minmea.c ****             &frame->sats[3].elevation,
 567:Core/Src/minmea.c ****             &frame->sats[3].azimuth,
 568:Core/Src/minmea.c ****             &frame->sats[3].snr
 569:Core/Src/minmea.c ****             )) {
 570:Core/Src/minmea.c ****         return false;
 571:Core/Src/minmea.c ****     }
 572:Core/Src/minmea.c ****     if (strcmp(type+2, "GSV"))
 2560              		.loc 1 572 5 is_stmt 1 view .LVU653
 2561              		.loc 1 572 9 is_stmt 0 view .LVU654
 2562 007e 0649     		ldr	r1, .L214+4
 2563 0080 0DF14A00 		add	r0, sp, #74
 2564 0084 FFF7FEFF 		bl	strcmp
 2565              	.LVL238:
ARM GAS  /var/folders/_g/2c7lhzm90n5_zxwlm2w6npkr0000gn/T//ccM86DqO.s 			page 66


 2566              		.loc 1 572 8 view .LVU655
 2567 0088 10B9     		cbnz	r0, .L213
 2568              	.L210:
 573:Core/Src/minmea.c ****         return false;
 574:Core/Src/minmea.c **** 
 575:Core/Src/minmea.c ****     return true;
 576:Core/Src/minmea.c **** }
 2569              		.loc 1 576 1 view .LVU656
 2570 008a 2046     		mov	r0, r4
 2571 008c 14B0     		add	sp, sp, #80
 2572              		.cfi_remember_state
 2573              		.cfi_def_cfa_offset 8
 2574              		@ sp needed
 2575 008e 10BD     		pop	{r4, pc}
 2576              	.L213:
 2577              		.cfi_restore_state
 573:Core/Src/minmea.c ****         return false;
 2578              		.loc 1 573 16 view .LVU657
 2579 0090 0024     		movs	r4, #0
 2580 0092 FAE7     		b	.L210
 2581              	.L215:
 2582              		.align	2
 2583              	.L214:
 2584 0094 00000000 		.word	.LC16
 2585 0098 14000000 		.word	.LC6
 2586              		.cfi_endproc
 2587              	.LFE17:
 2589              		.section	.rodata.minmea_parse_vtg.str1.4,"aMS",%progbits,1
 2590              		.align	2
 2591              	.LC17:
 2592 0000 743B6663 		.ascii	"t;fcfcfcfcc\000"
 2592      66636663 
 2592      66636300 
 2593              		.section	.text.minmea_parse_vtg,"ax",%progbits
 2594              		.align	1
 2595              		.global	minmea_parse_vtg
 2596              		.syntax unified
 2597              		.thumb
 2598              		.thumb_func
 2600              	minmea_parse_vtg:
 2601              	.LVL239:
 2602              	.LFB18:
 577:Core/Src/minmea.c **** 
 578:Core/Src/minmea.c **** bool minmea_parse_vtg(struct minmea_sentence_vtg *frame, const char *sentence)
 579:Core/Src/minmea.c **** {
 2603              		.loc 1 579 1 is_stmt 1 view -0
 2604              		.cfi_startproc
 2605              		@ args = 0, pretend = 0, frame = 16
 2606              		@ frame_needed = 0, uses_anonymous_args = 0
 2607              		.loc 1 579 1 is_stmt 0 view .LVU659
 2608 0000 30B5     		push	{r4, r5, lr}
 2609              		.cfi_def_cfa_offset 12
 2610              		.cfi_offset 4, -12
 2611              		.cfi_offset 5, -8
 2612              		.cfi_offset 14, -4
 2613 0002 8DB0     		sub	sp, sp, #52
 2614              		.cfi_def_cfa_offset 64
ARM GAS  /var/folders/_g/2c7lhzm90n5_zxwlm2w6npkr0000gn/T//ccM86DqO.s 			page 67


 2615 0004 0446     		mov	r4, r0
 2616 0006 0846     		mov	r0, r1
 2617              	.LVL240:
 580:Core/Src/minmea.c ****     // $GPVTG,054.7,T,034.4,M,005.5,N,010.2,K*48
 581:Core/Src/minmea.c ****     // $GPVTG,156.1,T,140.9,M,0.0,N,0.0,K*41
 582:Core/Src/minmea.c ****     // $GPVTG,096.5,T,083.5,M,0.0,N,0.0,K,D*22
 583:Core/Src/minmea.c ****     // $GPVTG,188.36,T,,M,0.820,N,1.519,K,A*3F
 584:Core/Src/minmea.c ****     char type[6];
 2618              		.loc 1 584 5 is_stmt 1 view .LVU660
 585:Core/Src/minmea.c ****     char c_true, c_magnetic, c_knots, c_kph, c_faa_mode;
 2619              		.loc 1 585 5 view .LVU661
 586:Core/Src/minmea.c **** 
 587:Core/Src/minmea.c ****     if (!minmea_scan(sentence, "t;fcfcfcfcc",
 2620              		.loc 1 587 5 view .LVU662
 2621              		.loc 1 587 10 is_stmt 0 view .LVU663
 2622 0008 0DF12303 		add	r3, sp, #35
 2623 000c 0793     		str	r3, [sp, #28]
 2624 000e 09AB     		add	r3, sp, #36
 2625 0010 0693     		str	r3, [sp, #24]
 2626 0012 04F11803 		add	r3, r4, #24
 2627 0016 0593     		str	r3, [sp, #20]
 2628 0018 0DF12503 		add	r3, sp, #37
 2629 001c 0493     		str	r3, [sp, #16]
 2630 001e 04F11003 		add	r3, r4, #16
 2631 0022 0393     		str	r3, [sp, #12]
 2632 0024 0DF12603 		add	r3, sp, #38
 2633 0028 0293     		str	r3, [sp, #8]
 2634 002a 04F10803 		add	r3, r4, #8
 2635 002e 0193     		str	r3, [sp, #4]
 2636 0030 0DF12703 		add	r3, sp, #39
 2637 0034 0093     		str	r3, [sp]
 2638 0036 2346     		mov	r3, r4
 2639 0038 0AAA     		add	r2, sp, #40
 2640 003a 1649     		ldr	r1, .L224
 2641              	.LVL241:
 2642              		.loc 1 587 10 view .LVU664
 2643 003c FFF7FEFF 		bl	minmea_scan
 2644              	.LVL242:
 2645              		.loc 1 587 8 view .LVU665
 2646 0040 0546     		mov	r5, r0
 2647 0042 08B3     		cbz	r0, .L217
 588:Core/Src/minmea.c ****             type,
 589:Core/Src/minmea.c ****             &frame->true_track_degrees,
 590:Core/Src/minmea.c ****             &c_true,
 591:Core/Src/minmea.c ****             &frame->magnetic_track_degrees,
 592:Core/Src/minmea.c ****             &c_magnetic,
 593:Core/Src/minmea.c ****             &frame->speed_knots,
 594:Core/Src/minmea.c ****             &c_knots,
 595:Core/Src/minmea.c ****             &frame->speed_kph,
 596:Core/Src/minmea.c ****             &c_kph,
 597:Core/Src/minmea.c ****             &c_faa_mode))
 598:Core/Src/minmea.c ****         return false;
 599:Core/Src/minmea.c ****     if (strcmp(type+2, "VTG"))
 2648              		.loc 1 599 5 is_stmt 1 view .LVU666
 2649              		.loc 1 599 9 is_stmt 0 view .LVU667
 2650 0044 1449     		ldr	r1, .L224+4
 2651 0046 0DF12A00 		add	r0, sp, #42
ARM GAS  /var/folders/_g/2c7lhzm90n5_zxwlm2w6npkr0000gn/T//ccM86DqO.s 			page 68


 2652 004a FFF7FEFF 		bl	strcmp
 2653              	.LVL243:
 2654              		.loc 1 599 8 view .LVU668
 2655 004e F0B9     		cbnz	r0, .L222
 600:Core/Src/minmea.c ****         return false;
 601:Core/Src/minmea.c ****     // values are only valid with the accompanying characters
 602:Core/Src/minmea.c ****     if (c_true != 'T')
 2656              		.loc 1 602 5 is_stmt 1 view .LVU669
 2657              		.loc 1 602 16 is_stmt 0 view .LVU670
 2658 0050 9DF82730 		ldrb	r3, [sp, #39]	@ zero_extendqisi2
 2659              		.loc 1 602 8 view .LVU671
 2660 0054 542B     		cmp	r3, #84
 2661 0056 01D0     		beq	.L218
 603:Core/Src/minmea.c ****         frame->true_track_degrees.scale = 0;
 2662              		.loc 1 603 9 is_stmt 1 view .LVU672
 2663              		.loc 1 603 41 is_stmt 0 view .LVU673
 2664 0058 0023     		movs	r3, #0
 2665 005a 6360     		str	r3, [r4, #4]
 2666              	.L218:
 604:Core/Src/minmea.c ****     if (c_magnetic != 'M')
 2667              		.loc 1 604 5 is_stmt 1 view .LVU674
 2668              		.loc 1 604 20 is_stmt 0 view .LVU675
 2669 005c 9DF82630 		ldrb	r3, [sp, #38]	@ zero_extendqisi2
 2670              		.loc 1 604 8 view .LVU676
 2671 0060 4D2B     		cmp	r3, #77
 2672 0062 01D0     		beq	.L219
 605:Core/Src/minmea.c ****         frame->magnetic_track_degrees.scale = 0;
 2673              		.loc 1 605 9 is_stmt 1 view .LVU677
 2674              		.loc 1 605 45 is_stmt 0 view .LVU678
 2675 0064 0023     		movs	r3, #0
 2676 0066 E360     		str	r3, [r4, #12]
 2677              	.L219:
 606:Core/Src/minmea.c ****     if (c_knots != 'N')
 2678              		.loc 1 606 5 is_stmt 1 view .LVU679
 2679              		.loc 1 606 17 is_stmt 0 view .LVU680
 2680 0068 9DF82530 		ldrb	r3, [sp, #37]	@ zero_extendqisi2
 2681              		.loc 1 606 8 view .LVU681
 2682 006c 4E2B     		cmp	r3, #78
 2683 006e 01D0     		beq	.L220
 607:Core/Src/minmea.c ****         frame->speed_knots.scale = 0;
 2684              		.loc 1 607 9 is_stmt 1 view .LVU682
 2685              		.loc 1 607 34 is_stmt 0 view .LVU683
 2686 0070 0023     		movs	r3, #0
 2687 0072 6361     		str	r3, [r4, #20]
 2688              	.L220:
 608:Core/Src/minmea.c ****     if (c_kph != 'K')
 2689              		.loc 1 608 5 is_stmt 1 view .LVU684
 2690              		.loc 1 608 15 is_stmt 0 view .LVU685
 2691 0074 9DF82430 		ldrb	r3, [sp, #36]	@ zero_extendqisi2
 2692              		.loc 1 608 8 view .LVU686
 2693 0078 4B2B     		cmp	r3, #75
 2694 007a 01D0     		beq	.L221
 609:Core/Src/minmea.c ****         frame->speed_kph.scale = 0;
 2695              		.loc 1 609 9 is_stmt 1 view .LVU687
 2696              		.loc 1 609 32 is_stmt 0 view .LVU688
 2697 007c 0023     		movs	r3, #0
 2698 007e E361     		str	r3, [r4, #28]
ARM GAS  /var/folders/_g/2c7lhzm90n5_zxwlm2w6npkr0000gn/T//ccM86DqO.s 			page 69


 2699              	.L221:
 610:Core/Src/minmea.c ****     frame->faa_mode = (enum minmea_faa_mode)c_faa_mode;
 2700              		.loc 1 610 5 is_stmt 1 view .LVU689
 2701              		.loc 1 610 21 is_stmt 0 view .LVU690
 2702 0080 9DF82330 		ldrb	r3, [sp, #35]	@ zero_extendqisi2
 2703 0084 84F82030 		strb	r3, [r4, #32]
 611:Core/Src/minmea.c **** 
 612:Core/Src/minmea.c ****     return true;
 2704              		.loc 1 612 5 is_stmt 1 view .LVU691
 2705              	.L217:
 613:Core/Src/minmea.c **** }
 2706              		.loc 1 613 1 is_stmt 0 view .LVU692
 2707 0088 2846     		mov	r0, r5
 2708 008a 0DB0     		add	sp, sp, #52
 2709              		.cfi_remember_state
 2710              		.cfi_def_cfa_offset 12
 2711              		@ sp needed
 2712 008c 30BD     		pop	{r4, r5, pc}
 2713              	.LVL244:
 2714              	.L222:
 2715              		.cfi_restore_state
 600:Core/Src/minmea.c ****     // values are only valid with the accompanying characters
 2716              		.loc 1 600 16 view .LVU693
 2717 008e 0025     		movs	r5, #0
 2718 0090 FAE7     		b	.L217
 2719              	.L225:
 2720 0092 00BF     		.align	2
 2721              	.L224:
 2722 0094 00000000 		.word	.LC17
 2723 0098 1C000000 		.word	.LC8
 2724              		.cfi_endproc
 2725              	.LFE18:
 2727              		.section	.rodata.minmea_parse_zda.str1.4,"aMS",%progbits,1
 2728              		.align	2
 2729              	.LC18:
 2730 0000 74546969 		.ascii	"tTiiiii\000"
 2730      69696900 
 2731              		.section	.text.minmea_parse_zda,"ax",%progbits
 2732              		.align	1
 2733              		.global	minmea_parse_zda
 2734              		.syntax unified
 2735              		.thumb
 2736              		.thumb_func
 2738              	minmea_parse_zda:
 2739              	.LVL245:
 2740              	.LFB19:
 614:Core/Src/minmea.c **** 
 615:Core/Src/minmea.c **** bool minmea_parse_zda(struct minmea_sentence_zda *frame, const char *sentence)
 616:Core/Src/minmea.c **** {
 2741              		.loc 1 616 1 is_stmt 1 view -0
 2742              		.cfi_startproc
 2743              		@ args = 0, pretend = 0, frame = 8
 2744              		@ frame_needed = 0, uses_anonymous_args = 0
 2745              		.loc 1 616 1 is_stmt 0 view .LVU695
 2746 0000 30B5     		push	{r4, r5, lr}
 2747              		.cfi_def_cfa_offset 12
 2748              		.cfi_offset 4, -12
ARM GAS  /var/folders/_g/2c7lhzm90n5_zxwlm2w6npkr0000gn/T//ccM86DqO.s 			page 70


 2749              		.cfi_offset 5, -8
 2750              		.cfi_offset 14, -4
 2751 0002 89B0     		sub	sp, sp, #36
 2752              		.cfi_def_cfa_offset 48
 2753 0004 0446     		mov	r4, r0
 2754 0006 0846     		mov	r0, r1
 2755              	.LVL246:
 617:Core/Src/minmea.c ****   // $GPZDA,201530.00,04,07,2002,00,00*60
 618:Core/Src/minmea.c ****   char type[6];
 2756              		.loc 1 618 3 is_stmt 1 view .LVU696
 619:Core/Src/minmea.c **** 
 620:Core/Src/minmea.c ****   if(!minmea_scan(sentence, "tTiiiii",
 2757              		.loc 1 620 3 view .LVU697
 2758              		.loc 1 620 7 is_stmt 0 view .LVU698
 2759 0008 04F12003 		add	r3, r4, #32
 2760 000c 0493     		str	r3, [sp, #16]
 2761 000e 04F11C03 		add	r3, r4, #28
 2762 0012 0393     		str	r3, [sp, #12]
 2763 0014 04F11803 		add	r3, r4, #24
 2764 0018 0293     		str	r3, [sp, #8]
 2765 001a 04F11403 		add	r3, r4, #20
 2766 001e 0193     		str	r3, [sp, #4]
 2767 0020 04F11003 		add	r3, r4, #16
 2768 0024 0093     		str	r3, [sp]
 2769 0026 2346     		mov	r3, r4
 2770 0028 06AA     		add	r2, sp, #24
 2771 002a 1049     		ldr	r1, .L233
 2772              	.LVL247:
 2773              		.loc 1 620 7 view .LVU699
 2774 002c FFF7FEFF 		bl	minmea_scan
 2775              	.LVL248:
 2776              		.loc 1 620 5 view .LVU700
 2777 0030 0546     		mov	r5, r0
 2778 0032 98B1     		cbz	r0, .L227
 621:Core/Src/minmea.c ****           type,
 622:Core/Src/minmea.c ****           &frame->time,
 623:Core/Src/minmea.c ****           &frame->date.day,
 624:Core/Src/minmea.c ****           &frame->date.month,
 625:Core/Src/minmea.c ****           &frame->date.year,
 626:Core/Src/minmea.c ****           &frame->hour_offset,
 627:Core/Src/minmea.c ****           &frame->minute_offset))
 628:Core/Src/minmea.c ****       return false;
 629:Core/Src/minmea.c ****   if (strcmp(type+2, "ZDA"))
 2779              		.loc 1 629 3 is_stmt 1 view .LVU701
 2780              		.loc 1 629 7 is_stmt 0 view .LVU702
 2781 0034 0E49     		ldr	r1, .L233+4
 2782 0036 0DF11A00 		add	r0, sp, #26
 2783 003a FFF7FEFF 		bl	strcmp
 2784              	.LVL249:
 2785              		.loc 1 629 6 view .LVU703
 2786 003e 60B9     		cbnz	r0, .L228
 630:Core/Src/minmea.c ****       return false;
 631:Core/Src/minmea.c **** 
 632:Core/Src/minmea.c ****   // check offsets
 633:Core/Src/minmea.c ****   if (abs(frame->hour_offset) > 13 ||
 2787              		.loc 1 633 3 is_stmt 1 view .LVU704
 2788              		.loc 1 633 16 is_stmt 0 view .LVU705
ARM GAS  /var/folders/_g/2c7lhzm90n5_zxwlm2w6npkr0000gn/T//ccM86DqO.s 			page 71


 2789 0040 E369     		ldr	r3, [r4, #28]
 2790              		.loc 1 633 7 view .LVU706
 2791 0042 002B     		cmp	r3, #0
 2792 0044 B8BF     		it	lt
 2793 0046 5B42     		rsblt	r3, r3, #0
 2794              		.loc 1 633 6 view .LVU707
 2795 0048 0D2B     		cmp	r3, #13
 2796 004a 0ADC     		bgt	.L229
 634:Core/Src/minmea.c ****       frame->minute_offset > 59 ||
 2797              		.loc 1 634 12 discriminator 1 view .LVU708
 2798 004c 236A     		ldr	r3, [r4, #32]
 633:Core/Src/minmea.c ****       frame->minute_offset > 59 ||
 2799              		.loc 1 633 36 discriminator 1 view .LVU709
 2800 004e 3B2B     		cmp	r3, #59
 2801 0050 09DC     		bgt	.L230
 2802              		.loc 1 634 33 view .LVU710
 2803 0052 002B     		cmp	r3, #0
 2804 0054 02DA     		bge	.L227
 635:Core/Src/minmea.c ****       frame->minute_offset < 0)
 636:Core/Src/minmea.c ****       return false;
 2805              		.loc 1 636 14 view .LVU711
 2806 0056 0025     		movs	r5, #0
 2807 0058 00E0     		b	.L227
 2808              	.L228:
 630:Core/Src/minmea.c **** 
 2809              		.loc 1 630 14 view .LVU712
 2810 005a 0025     		movs	r5, #0
 2811              	.L227:
 637:Core/Src/minmea.c **** 
 638:Core/Src/minmea.c ****   return true;
 639:Core/Src/minmea.c **** }
 2812              		.loc 1 639 1 view .LVU713
 2813 005c 2846     		mov	r0, r5
 2814 005e 09B0     		add	sp, sp, #36
 2815              		.cfi_remember_state
 2816              		.cfi_def_cfa_offset 12
 2817              		@ sp needed
 2818 0060 30BD     		pop	{r4, r5, pc}
 2819              	.LVL250:
 2820              	.L229:
 2821              		.cfi_restore_state
 636:Core/Src/minmea.c **** 
 2822              		.loc 1 636 14 view .LVU714
 2823 0062 0025     		movs	r5, #0
 2824 0064 FAE7     		b	.L227
 2825              	.L230:
 2826 0066 0025     		movs	r5, #0
 2827 0068 F8E7     		b	.L227
 2828              	.L234:
 2829 006a 00BF     		.align	2
 2830              	.L233:
 2831 006c 00000000 		.word	.LC18
 2832 0070 20000000 		.word	.LC9
 2833              		.cfi_endproc
 2834              	.LFE19:
 2836              		.section	.text.minmea_getdatetime,"ax",%progbits
 2837              		.align	1
ARM GAS  /var/folders/_g/2c7lhzm90n5_zxwlm2w6npkr0000gn/T//ccM86DqO.s 			page 72


 2838              		.global	minmea_getdatetime
 2839              		.syntax unified
 2840              		.thumb
 2841              		.thumb_func
 2843              	minmea_getdatetime:
 2844              	.LVL251:
 2845              	.LFB20:
 640:Core/Src/minmea.c **** 
 641:Core/Src/minmea.c **** int minmea_getdatetime(struct tm *tm, const struct minmea_date *date, const struct minmea_time *tim
 642:Core/Src/minmea.c **** {
 2846              		.loc 1 642 1 is_stmt 1 view -0
 2847              		.cfi_startproc
 2848              		@ args = 0, pretend = 0, frame = 0
 2849              		@ frame_needed = 0, uses_anonymous_args = 0
 2850              		.loc 1 642 1 is_stmt 0 view .LVU716
 2851 0000 70B5     		push	{r4, r5, r6, lr}
 2852              		.cfi_def_cfa_offset 16
 2853              		.cfi_offset 4, -16
 2854              		.cfi_offset 5, -12
 2855              		.cfi_offset 6, -8
 2856              		.cfi_offset 14, -4
 2857 0002 0446     		mov	r4, r0
 643:Core/Src/minmea.c ****     if (date->year == -1 || time_->hours == -1)
 2858              		.loc 1 643 5 is_stmt 1 view .LVU717
 2859              		.loc 1 643 13 is_stmt 0 view .LVU718
 2860 0004 8868     		ldr	r0, [r1, #8]
 2861              	.LVL252:
 2862              		.loc 1 643 8 view .LVU719
 2863 0006 B0F1FF3F 		cmp	r0, #-1
 2864 000a 1BD0     		beq	.L235
 2865 000c 0D46     		mov	r5, r1
 2866 000e 1646     		mov	r6, r2
 2867              		.loc 1 643 34 discriminator 1 view .LVU720
 2868 0010 1068     		ldr	r0, [r2]
 2869              		.loc 1 643 26 discriminator 1 view .LVU721
 2870 0012 B0F1FF3F 		cmp	r0, #-1
 2871 0016 15D0     		beq	.L235
 644:Core/Src/minmea.c ****         return -1;
 645:Core/Src/minmea.c **** 
 646:Core/Src/minmea.c ****     memset(tm, 0, sizeof(*tm));
 2872              		.loc 1 646 5 is_stmt 1 view .LVU722
 2873 0018 2422     		movs	r2, #36
 2874              	.LVL253:
 2875              		.loc 1 646 5 is_stmt 0 view .LVU723
 2876 001a 0021     		movs	r1, #0
 2877              	.LVL254:
 2878              		.loc 1 646 5 view .LVU724
 2879 001c 2046     		mov	r0, r4
 2880 001e FFF7FEFF 		bl	memset
 2881              	.LVL255:
 647:Core/Src/minmea.c ****     if (date->year < 80) {
 2882              		.loc 1 647 5 is_stmt 1 view .LVU725
 2883              		.loc 1 647 13 is_stmt 0 view .LVU726
 2884 0022 AB68     		ldr	r3, [r5, #8]
 2885              		.loc 1 647 8 view .LVU727
 2886 0024 4F2B     		cmp	r3, #79
 2887 0026 0EDC     		bgt	.L237
ARM GAS  /var/folders/_g/2c7lhzm90n5_zxwlm2w6npkr0000gn/T//ccM86DqO.s 			page 73


 648:Core/Src/minmea.c ****         tm->tm_year = 2000 + date->year - 1900; // 2000-2079
 2888              		.loc 1 648 9 is_stmt 1 view .LVU728
 2889              		.loc 1 648 41 is_stmt 0 view .LVU729
 2890 0028 6433     		adds	r3, r3, #100
 2891              		.loc 1 648 21 view .LVU730
 2892 002a 6361     		str	r3, [r4, #20]
 2893              	.L238:
 649:Core/Src/minmea.c ****     } else if (date->year >= 1900) {
 650:Core/Src/minmea.c ****         tm->tm_year = date->year - 1900;        // 4 digit year, use directly
 651:Core/Src/minmea.c ****     } else {
 652:Core/Src/minmea.c ****         tm->tm_year = date->year;               // 1980-1999
 653:Core/Src/minmea.c ****     }
 654:Core/Src/minmea.c ****     tm->tm_mon = date->month - 1;
 2894              		.loc 1 654 5 is_stmt 1 view .LVU731
 2895              		.loc 1 654 22 is_stmt 0 view .LVU732
 2896 002c 6B68     		ldr	r3, [r5, #4]
 2897              		.loc 1 654 30 view .LVU733
 2898 002e 013B     		subs	r3, r3, #1
 2899              		.loc 1 654 16 view .LVU734
 2900 0030 2361     		str	r3, [r4, #16]
 655:Core/Src/minmea.c ****     tm->tm_mday = date->day;
 2901              		.loc 1 655 5 is_stmt 1 view .LVU735
 2902              		.loc 1 655 23 is_stmt 0 view .LVU736
 2903 0032 2B68     		ldr	r3, [r5]
 2904              		.loc 1 655 17 view .LVU737
 2905 0034 E360     		str	r3, [r4, #12]
 656:Core/Src/minmea.c ****     tm->tm_hour = time_->hours;
 2906              		.loc 1 656 5 is_stmt 1 view .LVU738
 2907              		.loc 1 656 24 is_stmt 0 view .LVU739
 2908 0036 3368     		ldr	r3, [r6]
 2909              		.loc 1 656 17 view .LVU740
 2910 0038 A360     		str	r3, [r4, #8]
 657:Core/Src/minmea.c ****     tm->tm_min = time_->minutes;
 2911              		.loc 1 657 5 is_stmt 1 view .LVU741
 2912              		.loc 1 657 23 is_stmt 0 view .LVU742
 2913 003a 7368     		ldr	r3, [r6, #4]
 2914              		.loc 1 657 16 view .LVU743
 2915 003c 6360     		str	r3, [r4, #4]
 658:Core/Src/minmea.c ****     tm->tm_sec = time_->seconds;
 2916              		.loc 1 658 5 is_stmt 1 view .LVU744
 2917              		.loc 1 658 23 is_stmt 0 view .LVU745
 2918 003e B368     		ldr	r3, [r6, #8]
 2919              		.loc 1 658 16 view .LVU746
 2920 0040 2360     		str	r3, [r4]
 659:Core/Src/minmea.c **** 
 660:Core/Src/minmea.c ****     return 0;
 2921              		.loc 1 660 5 is_stmt 1 view .LVU747
 2922              		.loc 1 660 12 is_stmt 0 view .LVU748
 2923 0042 0020     		movs	r0, #0
 2924              	.LVL256:
 2925              	.L235:
 661:Core/Src/minmea.c **** }
 2926              		.loc 1 661 1 view .LVU749
 2927 0044 70BD     		pop	{r4, r5, r6, pc}
 2928              	.LVL257:
 2929              	.L237:
 649:Core/Src/minmea.c ****         tm->tm_year = date->year - 1900;        // 4 digit year, use directly
ARM GAS  /var/folders/_g/2c7lhzm90n5_zxwlm2w6npkr0000gn/T//ccM86DqO.s 			page 74


 2930              		.loc 1 649 12 is_stmt 1 view .LVU750
 649:Core/Src/minmea.c ****         tm->tm_year = date->year - 1900;        // 4 digit year, use directly
 2931              		.loc 1 649 15 is_stmt 0 view .LVU751
 2932 0046 40F26B72 		movw	r2, #1899
 2933 004a 9342     		cmp	r3, r2
 2934 004c 03DD     		ble	.L239
 650:Core/Src/minmea.c ****     } else {
 2935              		.loc 1 650 9 is_stmt 1 view .LVU752
 650:Core/Src/minmea.c ****     } else {
 2936              		.loc 1 650 34 is_stmt 0 view .LVU753
 2937 004e A3F26C73 		subw	r3, r3, #1900
 650:Core/Src/minmea.c ****     } else {
 2938              		.loc 1 650 21 view .LVU754
 2939 0052 6361     		str	r3, [r4, #20]
 2940 0054 EAE7     		b	.L238
 2941              	.L239:
 652:Core/Src/minmea.c ****     }
 2942              		.loc 1 652 9 is_stmt 1 view .LVU755
 652:Core/Src/minmea.c ****     }
 2943              		.loc 1 652 21 is_stmt 0 view .LVU756
 2944 0056 6361     		str	r3, [r4, #20]
 2945 0058 E8E7     		b	.L238
 2946              		.cfi_endproc
 2947              	.LFE20:
 2949              		.section	.text.minmea_gettime,"ax",%progbits
 2950              		.align	1
 2951              		.global	minmea_gettime
 2952              		.syntax unified
 2953              		.thumb
 2954              		.thumb_func
 2956              	minmea_gettime:
 2957              	.LVL258:
 2958              	.LFB21:
 662:Core/Src/minmea.c **** 
 663:Core/Src/minmea.c **** int minmea_gettime(struct timespec *ts, const struct minmea_date *date, const struct minmea_time *t
 664:Core/Src/minmea.c **** {
 2959              		.loc 1 664 1 is_stmt 1 view -0
 2960              		.cfi_startproc
 2961              		@ args = 0, pretend = 0, frame = 40
 2962              		@ frame_needed = 0, uses_anonymous_args = 0
 2963              		.loc 1 664 1 is_stmt 0 view .LVU758
 2964 0000 70B5     		push	{r4, r5, r6, lr}
 2965              		.cfi_def_cfa_offset 16
 2966              		.cfi_offset 4, -16
 2967              		.cfi_offset 5, -12
 2968              		.cfi_offset 6, -8
 2969              		.cfi_offset 14, -4
 2970 0002 8AB0     		sub	sp, sp, #40
 2971              		.cfi_def_cfa_offset 56
 2972 0004 0446     		mov	r4, r0
 2973 0006 1546     		mov	r5, r2
 665:Core/Src/minmea.c ****     struct tm tm;
 2974              		.loc 1 665 5 is_stmt 1 view .LVU759
 666:Core/Src/minmea.c ****     if (minmea_getdatetime(&tm, date, time_))
 2975              		.loc 1 666 5 view .LVU760
 2976              		.loc 1 666 9 is_stmt 0 view .LVU761
 2977 0008 01A8     		add	r0, sp, #4
ARM GAS  /var/folders/_g/2c7lhzm90n5_zxwlm2w6npkr0000gn/T//ccM86DqO.s 			page 75


 2978              	.LVL259:
 2979              		.loc 1 666 9 view .LVU762
 2980 000a FFF7FEFF 		bl	minmea_getdatetime
 2981              	.LVL260:
 2982              		.loc 1 666 8 view .LVU763
 2983 000e A8B9     		cbnz	r0, .L243
 2984 0010 0646     		mov	r6, r0
 667:Core/Src/minmea.c ****         return -1;
 668:Core/Src/minmea.c **** 
 669:Core/Src/minmea.c ****     time_t timestamp = timegm(&tm); /* See README.md if your system lacks timegm(). */
 2985              		.loc 1 669 5 is_stmt 1 view .LVU764
 2986              		.loc 1 669 24 is_stmt 0 view .LVU765
 2987 0012 01A8     		add	r0, sp, #4
 2988 0014 FFF7FEFF 		bl	timegm
 2989              	.LVL261:
 2990              		.loc 1 669 12 view .LVU766
 2991 0018 C317     		asrs	r3, r0, #31
 2992              	.LVL262:
 670:Core/Src/minmea.c ****     if (timestamp != (time_t)-1) {
 2993              		.loc 1 670 5 is_stmt 1 view .LVU767
 2994              		.loc 1 670 8 is_stmt 0 view .LVU768
 2995 001a B3F1FF3F 		cmp	r3, #-1
 2996 001e 08BF     		it	eq
 2997 0020 B0F1FF3F 		cmpeq	r0, #-1
 2998 0024 0DD0     		beq	.L244
 671:Core/Src/minmea.c ****         ts->tv_sec = timestamp;
 2999              		.loc 1 671 9 is_stmt 1 view .LVU769
 3000              		.loc 1 671 20 is_stmt 0 view .LVU770
 3001 0026 2060     		str	r0, [r4]
 3002 0028 6360     		str	r3, [r4, #4]
 672:Core/Src/minmea.c ****         ts->tv_nsec = time_->microseconds * 1000;
 3003              		.loc 1 672 9 is_stmt 1 view .LVU771
 3004              		.loc 1 672 28 is_stmt 0 view .LVU772
 3005 002a EB68     		ldr	r3, [r5, #12]
 3006              	.LVL263:
 3007              		.loc 1 672 43 view .LVU773
 3008 002c 4FF47A72 		mov	r2, #1000
 3009 0030 02FB03F3 		mul	r3, r2, r3
 3010              		.loc 1 672 21 view .LVU774
 3011 0034 A360     		str	r3, [r4, #8]
 673:Core/Src/minmea.c ****         return 0;
 3012              		.loc 1 673 9 is_stmt 1 view .LVU775
 3013              	.LVL264:
 3014              	.L241:
 674:Core/Src/minmea.c ****     } else {
 675:Core/Src/minmea.c ****         return -1;
 676:Core/Src/minmea.c ****     }
 677:Core/Src/minmea.c **** }
 3015              		.loc 1 677 1 is_stmt 0 view .LVU776
 3016 0036 3046     		mov	r0, r6
 3017 0038 0AB0     		add	sp, sp, #40
 3018              		.cfi_remember_state
 3019              		.cfi_def_cfa_offset 16
 3020              		@ sp needed
 3021 003a 70BD     		pop	{r4, r5, r6, pc}
 3022              	.LVL265:
 3023              	.L243:
ARM GAS  /var/folders/_g/2c7lhzm90n5_zxwlm2w6npkr0000gn/T//ccM86DqO.s 			page 76


 3024              		.cfi_restore_state
 667:Core/Src/minmea.c **** 
 3025              		.loc 1 667 16 view .LVU777
 3026 003c 4FF0FF36 		mov	r6, #-1
 3027 0040 F9E7     		b	.L241
 3028              	.LVL266:
 3029              	.L244:
 675:Core/Src/minmea.c ****     }
 3030              		.loc 1 675 16 view .LVU778
 3031 0042 4FF0FF36 		mov	r6, #-1
 3032 0046 F6E7     		b	.L241
 3033              		.cfi_endproc
 3034              	.LFE21:
 3036              		.text
 3037              	.Letext0:
 3038              		.file 3 "/Users/roryschram/Library/Application Support/Code/User/globalStorage/bmd.stm32-for-vscod
 3039              		.file 4 "/Users/roryschram/Library/Application Support/Code/User/globalStorage/bmd.stm32-for-vscod
 3040              		.file 5 "/Users/roryschram/Library/Application Support/Code/User/globalStorage/bmd.stm32-for-vscod
 3041              		.file 6 "/Users/roryschram/Library/Application Support/Code/User/globalStorage/bmd.stm32-for-vscod
 3042              		.file 7 "/Users/roryschram/Library/Application Support/Code/User/globalStorage/bmd.stm32-for-vscod
 3043              		.file 8 "/Users/roryschram/Library/Application Support/Code/User/globalStorage/bmd.stm32-for-vscod
 3044              		.file 9 "/Users/roryschram/Library/Application Support/Code/User/globalStorage/bmd.stm32-for-vscod
 3045              		.file 10 "/Users/roryschram/Library/Application Support/Code/User/globalStorage/bmd.stm32-for-vsco
 3046              		.file 11 "/Users/roryschram/Library/Application Support/Code/User/globalStorage/bmd.stm32-for-vsco
 3047              		.file 12 "/Users/roryschram/Library/Application Support/Code/User/globalStorage/bmd.stm32-for-vsco
 3048              		.file 13 "/Users/roryschram/Library/Application Support/Code/User/globalStorage/bmd.stm32-for-vsco
 3049              		.file 14 "<built-in>"
ARM GAS  /var/folders/_g/2c7lhzm90n5_zxwlm2w6npkr0000gn/T//ccM86DqO.s 			page 77

